
rv64ui-p-or:     file format elf64-littleriscv


Disassembly of section .text.init:

0000000000000000 <_start>:
   0:	0480006f          	j	48 <reset_vector>

0000000000000004 <trap_vector>:
   4:	00000f13          	li	t5,0
   8:	000f0463          	beqz	t5,10 <trap_vector+0xc>
   c:	000f0067          	jr	t5
  10:	34202f73          	csrr	t5,mcause
  14:	000f5463          	bgez	t5,1c <handle_exception>
  18:	0200006f          	j	38 <other_exception>

000000000000001c <handle_exception>:
  1c:	34202f73          	csrr	t5,mcause
  20:	00800f93          	li	t6,8
  24:	01ff0c63          	beq	t5,t6,3c <write_tohost>
  28:	00900f93          	li	t6,9
  2c:	01ff0863          	beq	t5,t6,3c <write_tohost>
  30:	00b00f93          	li	t6,11
  34:	01ff0463          	beq	t5,t6,3c <write_tohost>

0000000000000038 <other_exception>:
  38:	5391e193          	ori	gp,gp,1337

000000000000003c <write_tohost>:
  3c:	00001f17          	auipc	t5,0x1
  40:	fc3f2223          	sw	gp,-60(t5) # 1000 <tohost>
  44:	ff9ff06f          	j	3c <write_tohost>

0000000000000048 <reset_vector>:
  48:	00000093          	li	ra,0
  4c:	00000113          	li	sp,0
  50:	00000193          	li	gp,0
  54:	00000213          	li	tp,0
  58:	00000293          	li	t0,0
  5c:	00000313          	li	t1,0
  60:	00000393          	li	t2,0
  64:	00000413          	li	s0,0
  68:	00000493          	li	s1,0
  6c:	00000513          	li	a0,0
  70:	00000593          	li	a1,0
  74:	00000613          	li	a2,0
  78:	00000693          	li	a3,0
  7c:	00000713          	li	a4,0
  80:	00000793          	li	a5,0
  84:	00000813          	li	a6,0
  88:	00000893          	li	a7,0
  8c:	00000913          	li	s2,0
  90:	00000993          	li	s3,0
  94:	00000a13          	li	s4,0
  98:	00000a93          	li	s5,0
  9c:	00000b13          	li	s6,0
  a0:	00000b93          	li	s7,0
  a4:	00000c13          	li	s8,0
  a8:	00000c93          	li	s9,0
  ac:	00000d13          	li	s10,0
  b0:	00000d93          	li	s11,0
  b4:	00000e13          	li	t3,0
  b8:	00000e93          	li	t4,0
  bc:	00000f13          	li	t5,0
  c0:	00000f93          	li	t6,0
  c4:	f1402573          	csrr	a0,mhartid
  c8:	00051063          	bnez	a0,c8 <reset_vector+0x80>
  cc:	00000193          	li	gp,0
  d0:	00000297          	auipc	t0,0x0
  d4:	f3428293          	addi	t0,t0,-204 # 4 <trap_vector>
  d8:	30529073          	csrw	mtvec,t0
  dc:	00100513          	li	a0,1
  e0:	01f51513          	slli	a0,a0,0x1f
  e4:	02055e63          	bgez	a0,120 <reset_vector+0xd8>
  e8:	0ff0000f          	fence
  ec:	00100193          	li	gp,1
  f0:	05d00893          	li	a7,93
  f4:	00000513          	li	a0,0
  f8:	080002b7          	lui	t0,0x8000
  fc:	7c029073          	csrw	0x7c0,t0
 100:	a0000337          	lui	t1,0xa0000
 104:	0013031b          	addiw	t1,t1,1
 108:	00c31313          	slli	t1,t1,0xc
 10c:	a0b30313          	addi	t1,t1,-1525 # ffffffff9ffffa0b <_end+0xffffffff9fffda0b>
 110:	01331313          	slli	t1,t1,0x13
 114:	0ff00293          	li	t0,255
 118:	00530023          	sb	t0,0(t1)
 11c:	00000073          	ecall
 120:	30005073          	csrwi	mstatus,0
 124:	00000297          	auipc	t0,0x0
 128:	01428293          	addi	t0,t0,20 # 138 <test_2>
 12c:	34129073          	csrw	mepc,t0
 130:	f1402573          	csrr	a0,mhartid
 134:	30200073          	mret

0000000000000138 <test_2>:
 138:	000100b7          	lui	ra,0x10
 13c:	f010809b          	addiw	ra,ra,-255
 140:	01009093          	slli	ra,ra,0x10
 144:	f0008093          	addi	ra,ra,-256 # ff00 <_end+0xdf00>
 148:	0f0f1137          	lui	sp,0xf0f1
 14c:	f0f1011b          	addiw	sp,sp,-241
 150:	0020e733          	or	a4,ra,sp
 154:	000013b7          	lui	t2,0x1
 158:	ff13839b          	addiw	t2,t2,-15
 15c:	01439393          	slli	t2,t2,0x14
 160:	f0f38393          	addi	t2,t2,-241 # f0f <pass+0x7bb>
 164:	00200193          	li	gp,2
 168:	5a771663          	bne	a4,t2,714 <fail>

000000000000016c <test_3>:
 16c:	0ff010b7          	lui	ra,0xff01
 170:	ff00809b          	addiw	ra,ra,-16
 174:	000f1137          	lui	sp,0xf1
 178:	f0f1011b          	addiw	sp,sp,-241
 17c:	00c11113          	slli	sp,sp,0xc
 180:	0f010113          	addi	sp,sp,240 # f10f0 <_end+0xef0f0>
 184:	0020e733          	or	a4,ra,sp
 188:	000103b7          	lui	t2,0x10
 18c:	ff13839b          	addiw	t2,t2,-15
 190:	01039393          	slli	t2,t2,0x10
 194:	ff038393          	addi	t2,t2,-16 # fff0 <_end+0xdff0>
 198:	00300193          	li	gp,3
 19c:	56771c63          	bne	a4,t2,714 <fail>

00000000000001a0 <test_4>:
 1a0:	00ff00b7          	lui	ra,0xff0
 1a4:	0ff0809b          	addiw	ra,ra,255
 1a8:	0f0f1137          	lui	sp,0xf0f1
 1ac:	f0f1011b          	addiw	sp,sp,-241
 1b0:	0020e733          	or	a4,ra,sp
 1b4:	0fff13b7          	lui	t2,0xfff1
 1b8:	fff3839b          	addiw	t2,t2,-1
 1bc:	00400193          	li	gp,4
 1c0:	54771a63          	bne	a4,t2,714 <fail>

00000000000001c4 <test_5>:
 1c4:	000f00b7          	lui	ra,0xf0
 1c8:	0ff0809b          	addiw	ra,ra,255
 1cc:	00c09093          	slli	ra,ra,0xc
 1d0:	00f08093          	addi	ra,ra,15 # f000f <_end+0xee00f>
 1d4:	000f1137          	lui	sp,0xf1
 1d8:	f0f1011b          	addiw	sp,sp,-241
 1dc:	00c11113          	slli	sp,sp,0xc
 1e0:	0f010113          	addi	sp,sp,240 # f10f0 <_end+0xef0f0>
 1e4:	0020e733          	or	a4,ra,sp
 1e8:	000f13b7          	lui	t2,0xf1
 1ec:	fff3839b          	addiw	t2,t2,-1
 1f0:	00c39393          	slli	t2,t2,0xc
 1f4:	0ff38393          	addi	t2,t2,255 # f10ff <_end+0xef0ff>
 1f8:	00500193          	li	gp,5
 1fc:	50771c63          	bne	a4,t2,714 <fail>

0000000000000200 <test_6>:
 200:	000100b7          	lui	ra,0x10
 204:	f010809b          	addiw	ra,ra,-255
 208:	01009093          	slli	ra,ra,0x10
 20c:	f0008093          	addi	ra,ra,-256 # ff00 <_end+0xdf00>
 210:	0f0f1137          	lui	sp,0xf0f1
 214:	f0f1011b          	addiw	sp,sp,-241
 218:	0020e0b3          	or	ra,ra,sp
 21c:	000013b7          	lui	t2,0x1
 220:	ff13839b          	addiw	t2,t2,-15
 224:	01439393          	slli	t2,t2,0x14
 228:	f0f38393          	addi	t2,t2,-241 # f0f <pass+0x7bb>
 22c:	00600193          	li	gp,6
 230:	4e709263          	bne	ra,t2,714 <fail>

0000000000000234 <test_7>:
 234:	000100b7          	lui	ra,0x10
 238:	f010809b          	addiw	ra,ra,-255
 23c:	01009093          	slli	ra,ra,0x10
 240:	f0008093          	addi	ra,ra,-256 # ff00 <_end+0xdf00>
 244:	0f0f1137          	lui	sp,0xf0f1
 248:	f0f1011b          	addiw	sp,sp,-241
 24c:	0020e133          	or	sp,ra,sp
 250:	000013b7          	lui	t2,0x1
 254:	ff13839b          	addiw	t2,t2,-15
 258:	01439393          	slli	t2,t2,0x14
 25c:	f0f38393          	addi	t2,t2,-241 # f0f <pass+0x7bb>
 260:	00700193          	li	gp,7
 264:	4a711863          	bne	sp,t2,714 <fail>

0000000000000268 <test_8>:
 268:	000100b7          	lui	ra,0x10
 26c:	f010809b          	addiw	ra,ra,-255
 270:	01009093          	slli	ra,ra,0x10
 274:	f0008093          	addi	ra,ra,-256 # ff00 <_end+0xdf00>
 278:	0010e0b3          	or	ra,ra,ra
 27c:	000103b7          	lui	t2,0x10
 280:	f013839b          	addiw	t2,t2,-255
 284:	01039393          	slli	t2,t2,0x10
 288:	f0038393          	addi	t2,t2,-256 # ff00 <_end+0xdf00>
 28c:	00800193          	li	gp,8
 290:	48709263          	bne	ra,t2,714 <fail>

0000000000000294 <test_9>:
 294:	00000213          	li	tp,0
 298:	000100b7          	lui	ra,0x10
 29c:	f010809b          	addiw	ra,ra,-255
 2a0:	01009093          	slli	ra,ra,0x10
 2a4:	f0008093          	addi	ra,ra,-256 # ff00 <_end+0xdf00>
 2a8:	0f0f1137          	lui	sp,0xf0f1
 2ac:	f0f1011b          	addiw	sp,sp,-241
 2b0:	0020e733          	or	a4,ra,sp
 2b4:	00070313          	mv	t1,a4
 2b8:	00120213          	addi	tp,tp,1 # 1 <_start+0x1>
 2bc:	00200293          	li	t0,2
 2c0:	fc521ce3          	bne	tp,t0,298 <test_9+0x4>
 2c4:	000013b7          	lui	t2,0x1
 2c8:	ff13839b          	addiw	t2,t2,-15
 2cc:	01439393          	slli	t2,t2,0x14
 2d0:	f0f38393          	addi	t2,t2,-241 # f0f <pass+0x7bb>
 2d4:	00900193          	li	gp,9
 2d8:	42731e63          	bne	t1,t2,714 <fail>

00000000000002dc <test_10>:
 2dc:	00000213          	li	tp,0
 2e0:	0ff010b7          	lui	ra,0xff01
 2e4:	ff00809b          	addiw	ra,ra,-16
 2e8:	000f1137          	lui	sp,0xf1
 2ec:	f0f1011b          	addiw	sp,sp,-241
 2f0:	00c11113          	slli	sp,sp,0xc
 2f4:	0f010113          	addi	sp,sp,240 # f10f0 <_end+0xef0f0>
 2f8:	0020e733          	or	a4,ra,sp
 2fc:	00000013          	nop
 300:	00070313          	mv	t1,a4
 304:	00120213          	addi	tp,tp,1 # 1 <_start+0x1>
 308:	00200293          	li	t0,2
 30c:	fc521ae3          	bne	tp,t0,2e0 <test_10+0x4>
 310:	000103b7          	lui	t2,0x10
 314:	ff13839b          	addiw	t2,t2,-15
 318:	01039393          	slli	t2,t2,0x10
 31c:	ff038393          	addi	t2,t2,-16 # fff0 <_end+0xdff0>
 320:	00a00193          	li	gp,10
 324:	3e731863          	bne	t1,t2,714 <fail>

0000000000000328 <test_11>:
 328:	00000213          	li	tp,0
 32c:	00ff00b7          	lui	ra,0xff0
 330:	0ff0809b          	addiw	ra,ra,255
 334:	0f0f1137          	lui	sp,0xf0f1
 338:	f0f1011b          	addiw	sp,sp,-241
 33c:	0020e733          	or	a4,ra,sp
 340:	00000013          	nop
 344:	00000013          	nop
 348:	00070313          	mv	t1,a4
 34c:	00120213          	addi	tp,tp,1 # 1 <_start+0x1>
 350:	00200293          	li	t0,2
 354:	fc521ce3          	bne	tp,t0,32c <test_11+0x4>
 358:	0fff13b7          	lui	t2,0xfff1
 35c:	fff3839b          	addiw	t2,t2,-1
 360:	00b00193          	li	gp,11
 364:	3a731863          	bne	t1,t2,714 <fail>

0000000000000368 <test_12>:
 368:	00000213          	li	tp,0
 36c:	000100b7          	lui	ra,0x10
 370:	f010809b          	addiw	ra,ra,-255
 374:	01009093          	slli	ra,ra,0x10
 378:	f0008093          	addi	ra,ra,-256 # ff00 <_end+0xdf00>
 37c:	0f0f1137          	lui	sp,0xf0f1
 380:	f0f1011b          	addiw	sp,sp,-241
 384:	0020e733          	or	a4,ra,sp
 388:	00120213          	addi	tp,tp,1 # 1 <_start+0x1>
 38c:	00200293          	li	t0,2
 390:	fc521ee3          	bne	tp,t0,36c <test_12+0x4>
 394:	000013b7          	lui	t2,0x1
 398:	ff13839b          	addiw	t2,t2,-15
 39c:	01439393          	slli	t2,t2,0x14
 3a0:	f0f38393          	addi	t2,t2,-241 # f0f <pass+0x7bb>
 3a4:	00c00193          	li	gp,12
 3a8:	36771663          	bne	a4,t2,714 <fail>

00000000000003ac <test_13>:
 3ac:	00000213          	li	tp,0
 3b0:	0ff010b7          	lui	ra,0xff01
 3b4:	ff00809b          	addiw	ra,ra,-16
 3b8:	000f1137          	lui	sp,0xf1
 3bc:	f0f1011b          	addiw	sp,sp,-241
 3c0:	00c11113          	slli	sp,sp,0xc
 3c4:	0f010113          	addi	sp,sp,240 # f10f0 <_end+0xef0f0>
 3c8:	00000013          	nop
 3cc:	0020e733          	or	a4,ra,sp
 3d0:	00120213          	addi	tp,tp,1 # 1 <_start+0x1>
 3d4:	00200293          	li	t0,2
 3d8:	fc521ce3          	bne	tp,t0,3b0 <test_13+0x4>
 3dc:	000103b7          	lui	t2,0x10
 3e0:	ff13839b          	addiw	t2,t2,-15
 3e4:	01039393          	slli	t2,t2,0x10
 3e8:	ff038393          	addi	t2,t2,-16 # fff0 <_end+0xdff0>
 3ec:	00d00193          	li	gp,13
 3f0:	32771263          	bne	a4,t2,714 <fail>

00000000000003f4 <test_14>:
 3f4:	00000213          	li	tp,0
 3f8:	00ff00b7          	lui	ra,0xff0
 3fc:	0ff0809b          	addiw	ra,ra,255
 400:	0f0f1137          	lui	sp,0xf0f1
 404:	f0f1011b          	addiw	sp,sp,-241
 408:	00000013          	nop
 40c:	00000013          	nop
 410:	0020e733          	or	a4,ra,sp
 414:	00120213          	addi	tp,tp,1 # 1 <_start+0x1>
 418:	00200293          	li	t0,2
 41c:	fc521ee3          	bne	tp,t0,3f8 <test_14+0x4>
 420:	0fff13b7          	lui	t2,0xfff1
 424:	fff3839b          	addiw	t2,t2,-1
 428:	00e00193          	li	gp,14
 42c:	2e771463          	bne	a4,t2,714 <fail>

0000000000000430 <test_15>:
 430:	00000213          	li	tp,0
 434:	000100b7          	lui	ra,0x10
 438:	f010809b          	addiw	ra,ra,-255
 43c:	01009093          	slli	ra,ra,0x10
 440:	f0008093          	addi	ra,ra,-256 # ff00 <_end+0xdf00>
 444:	00000013          	nop
 448:	0f0f1137          	lui	sp,0xf0f1
 44c:	f0f1011b          	addiw	sp,sp,-241
 450:	0020e733          	or	a4,ra,sp
 454:	00120213          	addi	tp,tp,1 # 1 <_start+0x1>
 458:	00200293          	li	t0,2
 45c:	fc521ce3          	bne	tp,t0,434 <test_15+0x4>
 460:	000013b7          	lui	t2,0x1
 464:	ff13839b          	addiw	t2,t2,-15
 468:	01439393          	slli	t2,t2,0x14
 46c:	f0f38393          	addi	t2,t2,-241 # f0f <pass+0x7bb>
 470:	00f00193          	li	gp,15
 474:	2a771063          	bne	a4,t2,714 <fail>

0000000000000478 <test_16>:
 478:	00000213          	li	tp,0
 47c:	0ff010b7          	lui	ra,0xff01
 480:	ff00809b          	addiw	ra,ra,-16
 484:	00000013          	nop
 488:	000f1137          	lui	sp,0xf1
 48c:	f0f1011b          	addiw	sp,sp,-241
 490:	00c11113          	slli	sp,sp,0xc
 494:	0f010113          	addi	sp,sp,240 # f10f0 <_end+0xef0f0>
 498:	00000013          	nop
 49c:	0020e733          	or	a4,ra,sp
 4a0:	00120213          	addi	tp,tp,1 # 1 <_start+0x1>
 4a4:	00200293          	li	t0,2
 4a8:	fc521ae3          	bne	tp,t0,47c <test_16+0x4>
 4ac:	000103b7          	lui	t2,0x10
 4b0:	ff13839b          	addiw	t2,t2,-15
 4b4:	01039393          	slli	t2,t2,0x10
 4b8:	ff038393          	addi	t2,t2,-16 # fff0 <_end+0xdff0>
 4bc:	01000193          	li	gp,16
 4c0:	24771a63          	bne	a4,t2,714 <fail>

00000000000004c4 <test_17>:
 4c4:	00000213          	li	tp,0
 4c8:	00ff00b7          	lui	ra,0xff0
 4cc:	0ff0809b          	addiw	ra,ra,255
 4d0:	00000013          	nop
 4d4:	00000013          	nop
 4d8:	0f0f1137          	lui	sp,0xf0f1
 4dc:	f0f1011b          	addiw	sp,sp,-241
 4e0:	0020e733          	or	a4,ra,sp
 4e4:	00120213          	addi	tp,tp,1 # 1 <_start+0x1>
 4e8:	00200293          	li	t0,2
 4ec:	fc521ee3          	bne	tp,t0,4c8 <test_17+0x4>
 4f0:	0fff13b7          	lui	t2,0xfff1
 4f4:	fff3839b          	addiw	t2,t2,-1
 4f8:	01100193          	li	gp,17
 4fc:	20771c63          	bne	a4,t2,714 <fail>

0000000000000500 <test_18>:
 500:	00000213          	li	tp,0
 504:	0f0f1137          	lui	sp,0xf0f1
 508:	f0f1011b          	addiw	sp,sp,-241
 50c:	000100b7          	lui	ra,0x10
 510:	f010809b          	addiw	ra,ra,-255
 514:	01009093          	slli	ra,ra,0x10
 518:	f0008093          	addi	ra,ra,-256 # ff00 <_end+0xdf00>
 51c:	0020e733          	or	a4,ra,sp
 520:	00120213          	addi	tp,tp,1 # 1 <_start+0x1>
 524:	00200293          	li	t0,2
 528:	fc521ee3          	bne	tp,t0,504 <test_18+0x4>
 52c:	000013b7          	lui	t2,0x1
 530:	ff13839b          	addiw	t2,t2,-15
 534:	01439393          	slli	t2,t2,0x14
 538:	f0f38393          	addi	t2,t2,-241 # f0f <pass+0x7bb>
 53c:	01200193          	li	gp,18
 540:	1c771a63          	bne	a4,t2,714 <fail>

0000000000000544 <test_19>:
 544:	00000213          	li	tp,0
 548:	000f1137          	lui	sp,0xf1
 54c:	f0f1011b          	addiw	sp,sp,-241
 550:	00c11113          	slli	sp,sp,0xc
 554:	0f010113          	addi	sp,sp,240 # f10f0 <_end+0xef0f0>
 558:	0ff010b7          	lui	ra,0xff01
 55c:	ff00809b          	addiw	ra,ra,-16
 560:	00000013          	nop
 564:	0020e733          	or	a4,ra,sp
 568:	00120213          	addi	tp,tp,1 # 1 <_start+0x1>
 56c:	00200293          	li	t0,2
 570:	fc521ce3          	bne	tp,t0,548 <test_19+0x4>
 574:	000103b7          	lui	t2,0x10
 578:	ff13839b          	addiw	t2,t2,-15
 57c:	01039393          	slli	t2,t2,0x10
 580:	ff038393          	addi	t2,t2,-16 # fff0 <_end+0xdff0>
 584:	01300193          	li	gp,19
 588:	18771663          	bne	a4,t2,714 <fail>

000000000000058c <test_20>:
 58c:	00000213          	li	tp,0
 590:	0f0f1137          	lui	sp,0xf0f1
 594:	f0f1011b          	addiw	sp,sp,-241
 598:	00ff00b7          	lui	ra,0xff0
 59c:	0ff0809b          	addiw	ra,ra,255
 5a0:	00000013          	nop
 5a4:	00000013          	nop
 5a8:	0020e733          	or	a4,ra,sp
 5ac:	00120213          	addi	tp,tp,1 # 1 <_start+0x1>
 5b0:	00200293          	li	t0,2
 5b4:	fc521ee3          	bne	tp,t0,590 <test_20+0x4>
 5b8:	0fff13b7          	lui	t2,0xfff1
 5bc:	fff3839b          	addiw	t2,t2,-1
 5c0:	01400193          	li	gp,20
 5c4:	14771863          	bne	a4,t2,714 <fail>

00000000000005c8 <test_21>:
 5c8:	00000213          	li	tp,0
 5cc:	0f0f1137          	lui	sp,0xf0f1
 5d0:	f0f1011b          	addiw	sp,sp,-241
 5d4:	00000013          	nop
 5d8:	000100b7          	lui	ra,0x10
 5dc:	f010809b          	addiw	ra,ra,-255
 5e0:	01009093          	slli	ra,ra,0x10
 5e4:	f0008093          	addi	ra,ra,-256 # ff00 <_end+0xdf00>
 5e8:	0020e733          	or	a4,ra,sp
 5ec:	00120213          	addi	tp,tp,1 # 1 <_start+0x1>
 5f0:	00200293          	li	t0,2
 5f4:	fc521ce3          	bne	tp,t0,5cc <test_21+0x4>
 5f8:	000013b7          	lui	t2,0x1
 5fc:	ff13839b          	addiw	t2,t2,-15
 600:	01439393          	slli	t2,t2,0x14
 604:	f0f38393          	addi	t2,t2,-241 # f0f <pass+0x7bb>
 608:	01500193          	li	gp,21
 60c:	10771463          	bne	a4,t2,714 <fail>

0000000000000610 <test_22>:
 610:	00000213          	li	tp,0
 614:	000f1137          	lui	sp,0xf1
 618:	f0f1011b          	addiw	sp,sp,-241
 61c:	00c11113          	slli	sp,sp,0xc
 620:	0f010113          	addi	sp,sp,240 # f10f0 <_end+0xef0f0>
 624:	00000013          	nop
 628:	0ff010b7          	lui	ra,0xff01
 62c:	ff00809b          	addiw	ra,ra,-16
 630:	00000013          	nop
 634:	0020e733          	or	a4,ra,sp
 638:	00120213          	addi	tp,tp,1 # 1 <_start+0x1>
 63c:	00200293          	li	t0,2
 640:	fc521ae3          	bne	tp,t0,614 <test_22+0x4>
 644:	000103b7          	lui	t2,0x10
 648:	ff13839b          	addiw	t2,t2,-15
 64c:	01039393          	slli	t2,t2,0x10
 650:	ff038393          	addi	t2,t2,-16 # fff0 <_end+0xdff0>
 654:	01600193          	li	gp,22
 658:	0a771e63          	bne	a4,t2,714 <fail>

000000000000065c <test_23>:
 65c:	00000213          	li	tp,0
 660:	0f0f1137          	lui	sp,0xf0f1
 664:	f0f1011b          	addiw	sp,sp,-241
 668:	00000013          	nop
 66c:	00000013          	nop
 670:	00ff00b7          	lui	ra,0xff0
 674:	0ff0809b          	addiw	ra,ra,255
 678:	0020e733          	or	a4,ra,sp
 67c:	00120213          	addi	tp,tp,1 # 1 <_start+0x1>
 680:	00200293          	li	t0,2
 684:	fc521ee3          	bne	tp,t0,660 <test_23+0x4>
 688:	0fff13b7          	lui	t2,0xfff1
 68c:	fff3839b          	addiw	t2,t2,-1
 690:	01700193          	li	gp,23
 694:	08771063          	bne	a4,t2,714 <fail>

0000000000000698 <test_24>:
 698:	000100b7          	lui	ra,0x10
 69c:	f010809b          	addiw	ra,ra,-255
 6a0:	01009093          	slli	ra,ra,0x10
 6a4:	f0008093          	addi	ra,ra,-256 # ff00 <_end+0xdf00>
 6a8:	00106133          	or	sp,zero,ra
 6ac:	000103b7          	lui	t2,0x10
 6b0:	f013839b          	addiw	t2,t2,-255
 6b4:	01039393          	slli	t2,t2,0x10
 6b8:	f0038393          	addi	t2,t2,-256 # ff00 <_end+0xdf00>
 6bc:	01800193          	li	gp,24
 6c0:	04711a63          	bne	sp,t2,714 <fail>

00000000000006c4 <test_25>:
 6c4:	00ff00b7          	lui	ra,0xff0
 6c8:	0ff0809b          	addiw	ra,ra,255
 6cc:	0000e133          	or	sp,ra,zero
 6d0:	00ff03b7          	lui	t2,0xff0
 6d4:	0ff3839b          	addiw	t2,t2,255
 6d8:	01900193          	li	gp,25
 6dc:	02711c63          	bne	sp,t2,714 <fail>

00000000000006e0 <test_26>:
 6e0:	000060b3          	or	ra,zero,zero
 6e4:	00000393          	li	t2,0
 6e8:	01a00193          	li	gp,26
 6ec:	02709463          	bne	ra,t2,714 <fail>

00000000000006f0 <test_27>:
 6f0:	111110b7          	lui	ra,0x11111
 6f4:	1110809b          	addiw	ra,ra,273
 6f8:	22222137          	lui	sp,0x22222
 6fc:	2221011b          	addiw	sp,sp,546
 700:	0020e033          	or	zero,ra,sp
 704:	00000393          	li	t2,0
 708:	01b00193          	li	gp,27
 70c:	00701463          	bne	zero,t2,714 <fail>
 710:	04301263          	bne	zero,gp,754 <pass>

0000000000000714 <fail>:
 714:	0ff0000f          	fence
 718:	00018063          	beqz	gp,718 <fail+0x4>
 71c:	00119193          	slli	gp,gp,0x1
 720:	0011e193          	ori	gp,gp,1
 724:	05d00893          	li	a7,93
 728:	00018513          	mv	a0,gp
 72c:	080002b7          	lui	t0,0x8000
 730:	7c029073          	csrw	0x7c0,t0
 734:	a0000337          	lui	t1,0xa0000
 738:	0013031b          	addiw	t1,t1,1
 73c:	00c31313          	slli	t1,t1,0xc
 740:	a0b30313          	addi	t1,t1,-1525 # ffffffff9ffffa0b <_end+0xffffffff9fffda0b>
 744:	01331313          	slli	t1,t1,0x13
 748:	00100293          	li	t0,1
 74c:	00530023          	sb	t0,0(t1)
 750:	00000073          	ecall

0000000000000754 <pass>:
 754:	0ff0000f          	fence
 758:	00100193          	li	gp,1
 75c:	05d00893          	li	a7,93
 760:	00000513          	li	a0,0
 764:	080002b7          	lui	t0,0x8000
 768:	7c029073          	csrw	0x7c0,t0
 76c:	a0000337          	lui	t1,0xa0000
 770:	0013031b          	addiw	t1,t1,1
 774:	00c31313          	slli	t1,t1,0xc
 778:	a0b30313          	addi	t1,t1,-1525 # ffffffff9ffffa0b <_end+0xffffffff9fffda0b>
 77c:	01331313          	slli	t1,t1,0x13
 780:	0ff00293          	li	t0,255
 784:	00530023          	sb	t0,0(t1)
 788:	00000073          	ecall
 78c:	c0001073          	unimp
 790:	0000                	unimp
 792:	0000                	unimp
 794:	0000                	unimp
 796:	0000                	unimp
 798:	0000                	unimp
 79a:	0000                	unimp
 79c:	0000                	unimp
 79e:	0000                	unimp
 7a0:	0000                	unimp
 7a2:	0000                	unimp
 7a4:	0000                	unimp
 7a6:	0000                	unimp
 7a8:	0000                	unimp
 7aa:	0000                	unimp
 7ac:	0000                	unimp
 7ae:	0000                	unimp
 7b0:	0000                	unimp
 7b2:	0000                	unimp
 7b4:	0000                	unimp
 7b6:	0000                	unimp
 7b8:	0000                	unimp
 7ba:	0000                	unimp
 7bc:	0000                	unimp
 7be:	0000                	unimp
