
rv64ui-p-lbu:     file format elf64-littleriscv


Disassembly of section .text.init:

0000000000000000 <_start>:
   0:	0480006f          	j	48 <reset_vector>

0000000000000004 <trap_vector>:
   4:	00000f13          	li	t5,0
   8:	000f0463          	beqz	t5,10 <trap_vector+0xc>
   c:	000f0067          	jr	t5
  10:	34202f73          	csrr	t5,mcause
  14:	000f5463          	bgez	t5,1c <handle_exception>
  18:	0200006f          	j	38 <other_exception>

000000000000001c <handle_exception>:
  1c:	34202f73          	csrr	t5,mcause
  20:	00800f93          	li	t6,8
  24:	01ff0c63          	beq	t5,t6,3c <write_tohost>
  28:	00900f93          	li	t6,9
  2c:	01ff0863          	beq	t5,t6,3c <write_tohost>
  30:	00b00f93          	li	t6,11
  34:	01ff0463          	beq	t5,t6,3c <write_tohost>

0000000000000038 <other_exception>:
  38:	5391e193          	ori	gp,gp,1337

000000000000003c <write_tohost>:
  3c:	00001f17          	auipc	t5,0x1
  40:	fc3f2223          	sw	gp,-60(t5) # 1000 <tohost>
  44:	ff9ff06f          	j	3c <write_tohost>

0000000000000048 <reset_vector>:
  48:	00000093          	li	ra,0
  4c:	00000113          	li	sp,0
  50:	00000193          	li	gp,0
  54:	00000213          	li	tp,0
  58:	00000293          	li	t0,0
  5c:	00000313          	li	t1,0
  60:	00000393          	li	t2,0
  64:	00000413          	li	s0,0
  68:	00000493          	li	s1,0
  6c:	00000513          	li	a0,0
  70:	00000593          	li	a1,0
  74:	00000613          	li	a2,0
  78:	00000693          	li	a3,0
  7c:	00000713          	li	a4,0
  80:	00000793          	li	a5,0
  84:	00000813          	li	a6,0
  88:	00000893          	li	a7,0
  8c:	00000913          	li	s2,0
  90:	00000993          	li	s3,0
  94:	00000a13          	li	s4,0
  98:	00000a93          	li	s5,0
  9c:	00000b13          	li	s6,0
  a0:	00000b93          	li	s7,0
  a4:	00000c13          	li	s8,0
  a8:	00000c93          	li	s9,0
  ac:	00000d13          	li	s10,0
  b0:	00000d93          	li	s11,0
  b4:	00000e13          	li	t3,0
  b8:	00000e93          	li	t4,0
  bc:	00000f13          	li	t5,0
  c0:	00000f93          	li	t6,0
  c4:	f1402573          	csrr	a0,mhartid
  c8:	00051063          	bnez	a0,c8 <reset_vector+0x80>
  cc:	00000193          	li	gp,0
  d0:	00000297          	auipc	t0,0x0
  d4:	f3428293          	addi	t0,t0,-204 # 4 <trap_vector>
  d8:	30529073          	csrw	mtvec,t0
  dc:	00100513          	li	a0,1
  e0:	01f51513          	slli	a0,a0,0x1f
  e4:	02055e63          	bgez	a0,120 <reset_vector+0xd8>
  e8:	0ff0000f          	fence
  ec:	00100193          	li	gp,1
  f0:	05d00893          	li	a7,93
  f4:	00000513          	li	a0,0
  f8:	080002b7          	lui	t0,0x8000
  fc:	7c029073          	csrw	0x7c0,t0
 100:	a0000337          	lui	t1,0xa0000
 104:	0013031b          	addiw	t1,t1,1
 108:	00c31313          	slli	t1,t1,0xc
 10c:	a0b30313          	addi	t1,t1,-1525 # ffffffff9ffffa0b <_end+0xffffffff9fffd9fb>
 110:	01331313          	slli	t1,t1,0x13
 114:	0ff00293          	li	t0,255
 118:	00530023          	sb	t0,0(t1)
 11c:	00000073          	ecall
 120:	30005073          	csrwi	mstatus,0
 124:	00000297          	auipc	t0,0x0
 128:	01428293          	addi	t0,t0,20 # 138 <test_2>
 12c:	34129073          	csrw	mepc,t0
 130:	f1402573          	csrr	a0,mhartid
 134:	30200073          	mret

0000000000000138 <test_2>:
 138:	00002097          	auipc	ra,0x2
 13c:	ec808093          	addi	ra,ra,-312 # 2000 <begin_signature>
 140:	0000c703          	lbu	a4,0(ra)
 144:	0ff00393          	li	t2,255
 148:	00200193          	li	gp,2
 14c:	22771c63          	bne	a4,t2,384 <fail>

0000000000000150 <test_3>:
 150:	00002097          	auipc	ra,0x2
 154:	eb008093          	addi	ra,ra,-336 # 2000 <begin_signature>
 158:	0010c703          	lbu	a4,1(ra)
 15c:	00000393          	li	t2,0
 160:	00300193          	li	gp,3
 164:	22771063          	bne	a4,t2,384 <fail>

0000000000000168 <test_4>:
 168:	00002097          	auipc	ra,0x2
 16c:	e9808093          	addi	ra,ra,-360 # 2000 <begin_signature>
 170:	0020c703          	lbu	a4,2(ra)
 174:	0f000393          	li	t2,240
 178:	00400193          	li	gp,4
 17c:	20771463          	bne	a4,t2,384 <fail>

0000000000000180 <test_5>:
 180:	00002097          	auipc	ra,0x2
 184:	e8008093          	addi	ra,ra,-384 # 2000 <begin_signature>
 188:	0030c703          	lbu	a4,3(ra)
 18c:	00f00393          	li	t2,15
 190:	00500193          	li	gp,5
 194:	1e771863          	bne	a4,t2,384 <fail>

0000000000000198 <test_6>:
 198:	00002097          	auipc	ra,0x2
 19c:	e6b08093          	addi	ra,ra,-405 # 2003 <tdat4>
 1a0:	ffd0c703          	lbu	a4,-3(ra)
 1a4:	0ff00393          	li	t2,255
 1a8:	00600193          	li	gp,6
 1ac:	1c771c63          	bne	a4,t2,384 <fail>

00000000000001b0 <test_7>:
 1b0:	00002097          	auipc	ra,0x2
 1b4:	e5308093          	addi	ra,ra,-429 # 2003 <tdat4>
 1b8:	ffe0c703          	lbu	a4,-2(ra)
 1bc:	00000393          	li	t2,0
 1c0:	00700193          	li	gp,7
 1c4:	1c771063          	bne	a4,t2,384 <fail>

00000000000001c8 <test_8>:
 1c8:	00002097          	auipc	ra,0x2
 1cc:	e3b08093          	addi	ra,ra,-453 # 2003 <tdat4>
 1d0:	fff0c703          	lbu	a4,-1(ra)
 1d4:	0f000393          	li	t2,240
 1d8:	00800193          	li	gp,8
 1dc:	1a771463          	bne	a4,t2,384 <fail>

00000000000001e0 <test_9>:
 1e0:	00002097          	auipc	ra,0x2
 1e4:	e2308093          	addi	ra,ra,-477 # 2003 <tdat4>
 1e8:	0000c703          	lbu	a4,0(ra)
 1ec:	00f00393          	li	t2,15
 1f0:	00900193          	li	gp,9
 1f4:	18771863          	bne	a4,t2,384 <fail>

00000000000001f8 <test_10>:
 1f8:	00002097          	auipc	ra,0x2
 1fc:	e0808093          	addi	ra,ra,-504 # 2000 <begin_signature>
 200:	fe008093          	addi	ra,ra,-32
 204:	0200c283          	lbu	t0,32(ra)
 208:	0ff00393          	li	t2,255
 20c:	00a00193          	li	gp,10
 210:	16729a63          	bne	t0,t2,384 <fail>

0000000000000214 <test_11>:
 214:	00002097          	auipc	ra,0x2
 218:	dec08093          	addi	ra,ra,-532 # 2000 <begin_signature>
 21c:	ffa08093          	addi	ra,ra,-6
 220:	0070c283          	lbu	t0,7(ra)
 224:	00000393          	li	t2,0
 228:	00b00193          	li	gp,11
 22c:	14729c63          	bne	t0,t2,384 <fail>

0000000000000230 <test_12>:
 230:	00c00193          	li	gp,12
 234:	00000213          	li	tp,0
 238:	00002097          	auipc	ra,0x2
 23c:	dc908093          	addi	ra,ra,-567 # 2001 <tdat2>
 240:	0010c703          	lbu	a4,1(ra)
 244:	00070313          	mv	t1,a4
 248:	0f000393          	li	t2,240
 24c:	12731c63          	bne	t1,t2,384 <fail>
 250:	00120213          	addi	tp,tp,1 # 1 <_start+0x1>
 254:	00200293          	li	t0,2
 258:	fe5210e3          	bne	tp,t0,238 <test_12+0x8>

000000000000025c <test_13>:
 25c:	00d00193          	li	gp,13
 260:	00000213          	li	tp,0
 264:	00002097          	auipc	ra,0x2
 268:	d9e08093          	addi	ra,ra,-610 # 2002 <tdat3>
 26c:	0010c703          	lbu	a4,1(ra)
 270:	00000013          	nop
 274:	00070313          	mv	t1,a4
 278:	00f00393          	li	t2,15
 27c:	10731463          	bne	t1,t2,384 <fail>
 280:	00120213          	addi	tp,tp,1 # 1 <_start+0x1>
 284:	00200293          	li	t0,2
 288:	fc521ee3          	bne	tp,t0,264 <test_13+0x8>

000000000000028c <test_14>:
 28c:	00e00193          	li	gp,14
 290:	00000213          	li	tp,0
 294:	00002097          	auipc	ra,0x2
 298:	d6c08093          	addi	ra,ra,-660 # 2000 <begin_signature>
 29c:	0010c703          	lbu	a4,1(ra)
 2a0:	00000013          	nop
 2a4:	00000013          	nop
 2a8:	00070313          	mv	t1,a4
 2ac:	00000393          	li	t2,0
 2b0:	0c731a63          	bne	t1,t2,384 <fail>
 2b4:	00120213          	addi	tp,tp,1 # 1 <_start+0x1>
 2b8:	00200293          	li	t0,2
 2bc:	fc521ce3          	bne	tp,t0,294 <test_14+0x8>

00000000000002c0 <test_15>:
 2c0:	00f00193          	li	gp,15
 2c4:	00000213          	li	tp,0
 2c8:	00002097          	auipc	ra,0x2
 2cc:	d3908093          	addi	ra,ra,-711 # 2001 <tdat2>
 2d0:	0010c703          	lbu	a4,1(ra)
 2d4:	0f000393          	li	t2,240
 2d8:	0a771663          	bne	a4,t2,384 <fail>
 2dc:	00120213          	addi	tp,tp,1 # 1 <_start+0x1>
 2e0:	00200293          	li	t0,2
 2e4:	fe5212e3          	bne	tp,t0,2c8 <test_15+0x8>

00000000000002e8 <test_16>:
 2e8:	01000193          	li	gp,16
 2ec:	00000213          	li	tp,0
 2f0:	00002097          	auipc	ra,0x2
 2f4:	d1208093          	addi	ra,ra,-750 # 2002 <tdat3>
 2f8:	00000013          	nop
 2fc:	0010c703          	lbu	a4,1(ra)
 300:	00f00393          	li	t2,15
 304:	08771063          	bne	a4,t2,384 <fail>
 308:	00120213          	addi	tp,tp,1 # 1 <_start+0x1>
 30c:	00200293          	li	t0,2
 310:	fe5210e3          	bne	tp,t0,2f0 <test_16+0x8>

0000000000000314 <test_17>:
 314:	01100193          	li	gp,17
 318:	00000213          	li	tp,0
 31c:	00002097          	auipc	ra,0x2
 320:	ce408093          	addi	ra,ra,-796 # 2000 <begin_signature>
 324:	00000013          	nop
 328:	00000013          	nop
 32c:	0010c703          	lbu	a4,1(ra)
 330:	00000393          	li	t2,0
 334:	04771863          	bne	a4,t2,384 <fail>
 338:	00120213          	addi	tp,tp,1 # 1 <_start+0x1>
 33c:	00200293          	li	t0,2
 340:	fc521ee3          	bne	tp,t0,31c <test_17+0x8>

0000000000000344 <test_18>:
 344:	00002297          	auipc	t0,0x2
 348:	cbc28293          	addi	t0,t0,-836 # 2000 <begin_signature>
 34c:	0002c103          	lbu	sp,0(t0)
 350:	00200113          	li	sp,2
 354:	00200393          	li	t2,2
 358:	01200193          	li	gp,18
 35c:	02711463          	bne	sp,t2,384 <fail>

0000000000000360 <test_19>:
 360:	00002297          	auipc	t0,0x2
 364:	ca028293          	addi	t0,t0,-864 # 2000 <begin_signature>
 368:	0002c103          	lbu	sp,0(t0)
 36c:	00000013          	nop
 370:	00200113          	li	sp,2
 374:	00200393          	li	t2,2
 378:	01300193          	li	gp,19
 37c:	00711463          	bne	sp,t2,384 <fail>
 380:	04301263          	bne	zero,gp,3c4 <pass>

0000000000000384 <fail>:
 384:	0ff0000f          	fence
 388:	00018063          	beqz	gp,388 <fail+0x4>
 38c:	00119193          	slli	gp,gp,0x1
 390:	0011e193          	ori	gp,gp,1
 394:	05d00893          	li	a7,93
 398:	00018513          	mv	a0,gp
 39c:	080002b7          	lui	t0,0x8000
 3a0:	7c029073          	csrw	0x7c0,t0
 3a4:	a0000337          	lui	t1,0xa0000
 3a8:	0013031b          	addiw	t1,t1,1
 3ac:	00c31313          	slli	t1,t1,0xc
 3b0:	a0b30313          	addi	t1,t1,-1525 # ffffffff9ffffa0b <_end+0xffffffff9fffd9fb>
 3b4:	01331313          	slli	t1,t1,0x13
 3b8:	00100293          	li	t0,1
 3bc:	00530023          	sb	t0,0(t1)
 3c0:	00000073          	ecall

00000000000003c4 <pass>:
 3c4:	0ff0000f          	fence
 3c8:	00100193          	li	gp,1
 3cc:	05d00893          	li	a7,93
 3d0:	00000513          	li	a0,0
 3d4:	080002b7          	lui	t0,0x8000
 3d8:	7c029073          	csrw	0x7c0,t0
 3dc:	a0000337          	lui	t1,0xa0000
 3e0:	0013031b          	addiw	t1,t1,1
 3e4:	00c31313          	slli	t1,t1,0xc
 3e8:	a0b30313          	addi	t1,t1,-1525 # ffffffff9ffffa0b <_end+0xffffffff9fffd9fb>
 3ec:	01331313          	slli	t1,t1,0x13
 3f0:	0ff00293          	li	t0,255
 3f4:	00530023          	sb	t0,0(t1)
 3f8:	00000073          	ecall
 3fc:	c0001073          	unimp
