
rv64ui-p-sw:     file format elf64-littleriscv


Disassembly of section .text.init:

0000000000000000 <_start>:
   0:	0480006f          	j	48 <reset_vector>

0000000000000004 <trap_vector>:
   4:	00000f13          	li	t5,0
   8:	000f0463          	beqz	t5,10 <trap_vector+0xc>
   c:	000f0067          	jr	t5
  10:	34202f73          	csrr	t5,mcause
  14:	000f5463          	bgez	t5,1c <handle_exception>
  18:	0200006f          	j	38 <other_exception>

000000000000001c <handle_exception>:
  1c:	34202f73          	csrr	t5,mcause
  20:	00800f93          	li	t6,8
  24:	01ff0c63          	beq	t5,t6,3c <write_tohost>
  28:	00900f93          	li	t6,9
  2c:	01ff0863          	beq	t5,t6,3c <write_tohost>
  30:	00b00f93          	li	t6,11
  34:	01ff0463          	beq	t5,t6,3c <write_tohost>

0000000000000038 <other_exception>:
  38:	5391e193          	ori	gp,gp,1337

000000000000003c <write_tohost>:
  3c:	00001f17          	auipc	t5,0x1
  40:	fc3f2223          	sw	gp,-60(t5) # 1000 <tohost>
  44:	ff9ff06f          	j	3c <write_tohost>

0000000000000048 <reset_vector>:
  48:	00000093          	li	ra,0
  4c:	00000113          	li	sp,0
  50:	00000193          	li	gp,0
  54:	00000213          	li	tp,0
  58:	00000293          	li	t0,0
  5c:	00000313          	li	t1,0
  60:	00000393          	li	t2,0
  64:	00000413          	li	s0,0
  68:	00000493          	li	s1,0
  6c:	00000513          	li	a0,0
  70:	00000593          	li	a1,0
  74:	00000613          	li	a2,0
  78:	00000693          	li	a3,0
  7c:	00000713          	li	a4,0
  80:	00000793          	li	a5,0
  84:	00000813          	li	a6,0
  88:	00000893          	li	a7,0
  8c:	00000913          	li	s2,0
  90:	00000993          	li	s3,0
  94:	00000a13          	li	s4,0
  98:	00000a93          	li	s5,0
  9c:	00000b13          	li	s6,0
  a0:	00000b93          	li	s7,0
  a4:	00000c13          	li	s8,0
  a8:	00000c93          	li	s9,0
  ac:	00000d13          	li	s10,0
  b0:	00000d93          	li	s11,0
  b4:	00000e13          	li	t3,0
  b8:	00000e93          	li	t4,0
  bc:	00000f13          	li	t5,0
  c0:	00000f93          	li	t6,0
  c4:	f1402573          	csrr	a0,mhartid
  c8:	00051063          	bnez	a0,c8 <reset_vector+0x80>
  cc:	00000193          	li	gp,0
  d0:	00000297          	auipc	t0,0x0
  d4:	f3428293          	addi	t0,t0,-204 # 4 <trap_vector>
  d8:	30529073          	csrw	mtvec,t0
  dc:	00100513          	li	a0,1
  e0:	01f51513          	slli	a0,a0,0x1f
  e4:	02055e63          	bgez	a0,120 <reset_vector+0xd8>
  e8:	0ff0000f          	fence
  ec:	00100193          	li	gp,1
  f0:	05d00893          	li	a7,93
  f4:	00000513          	li	a0,0
  f8:	080002b7          	lui	t0,0x8000
  fc:	7c029073          	csrw	0x7c0,t0
 100:	a0000337          	lui	t1,0xa0000
 104:	0013031b          	addiw	t1,t1,1
 108:	00c31313          	slli	t1,t1,0xc
 10c:	a0b30313          	addi	t1,t1,-1525 # ffffffff9ffffa0b <_end+0xffffffff9fffd9db>
 110:	01331313          	slli	t1,t1,0x13
 114:	0ff00293          	li	t0,255
 118:	00530023          	sb	t0,0(t1)
 11c:	00000073          	ecall
 120:	30005073          	csrwi	mstatus,0
 124:	00000297          	auipc	t0,0x0
 128:	01428293          	addi	t0,t0,20 # 138 <test_2>
 12c:	34129073          	csrw	mepc,t0
 130:	f1402573          	csrr	a0,mhartid
 134:	30200073          	mret

0000000000000138 <test_2>:
 138:	00002097          	auipc	ra,0x2
 13c:	ec808093          	addi	ra,ra,-312 # 2000 <begin_signature>
 140:	00aa0137          	lui	sp,0xaa0
 144:	0aa1011b          	addiw	sp,sp,170
 148:	0020a023          	sw	sp,0(ra)
 14c:	0000a703          	lw	a4,0(ra)
 150:	00aa03b7          	lui	t2,0xaa0
 154:	0aa3839b          	addiw	t2,t2,170
 158:	00200193          	li	gp,2
 15c:	46771063          	bne	a4,t2,5bc <fail>

0000000000000160 <test_3>:
 160:	00002097          	auipc	ra,0x2
 164:	ea008093          	addi	ra,ra,-352 # 2000 <begin_signature>
 168:	aa00b137          	lui	sp,0xaa00b
 16c:	a001011b          	addiw	sp,sp,-1536
 170:	0020a223          	sw	sp,4(ra)
 174:	0040a703          	lw	a4,4(ra)
 178:	aa00b3b7          	lui	t2,0xaa00b
 17c:	a003839b          	addiw	t2,t2,-1536
 180:	00300193          	li	gp,3
 184:	42771c63          	bne	a4,t2,5bc <fail>

0000000000000188 <test_4>:
 188:	00002097          	auipc	ra,0x2
 18c:	e7808093          	addi	ra,ra,-392 # 2000 <begin_signature>
 190:	0aa01137          	lui	sp,0xaa01
 194:	aa01011b          	addiw	sp,sp,-1376
 198:	0020a423          	sw	sp,8(ra)
 19c:	0080a703          	lw	a4,8(ra)
 1a0:	0aa013b7          	lui	t2,0xaa01
 1a4:	aa03839b          	addiw	t2,t2,-1376
 1a8:	00400193          	li	gp,4
 1ac:	40771863          	bne	a4,t2,5bc <fail>

00000000000001b0 <test_5>:
 1b0:	00002097          	auipc	ra,0x2
 1b4:	e5008093          	addi	ra,ra,-432 # 2000 <begin_signature>
 1b8:	a00aa137          	lui	sp,0xa00aa
 1bc:	00a1011b          	addiw	sp,sp,10
 1c0:	0020a623          	sw	sp,12(ra)
 1c4:	00c0a703          	lw	a4,12(ra)
 1c8:	a00aa3b7          	lui	t2,0xa00aa
 1cc:	00a3839b          	addiw	t2,t2,10
 1d0:	00500193          	li	gp,5
 1d4:	3e771463          	bne	a4,t2,5bc <fail>

00000000000001d8 <test_6>:
 1d8:	00002097          	auipc	ra,0x2
 1dc:	e4408093          	addi	ra,ra,-444 # 201c <tdat8>
 1e0:	00aa0137          	lui	sp,0xaa0
 1e4:	0aa1011b          	addiw	sp,sp,170
 1e8:	fe20aa23          	sw	sp,-12(ra)
 1ec:	ff40a703          	lw	a4,-12(ra)
 1f0:	00aa03b7          	lui	t2,0xaa0
 1f4:	0aa3839b          	addiw	t2,t2,170
 1f8:	00600193          	li	gp,6
 1fc:	3c771063          	bne	a4,t2,5bc <fail>

0000000000000200 <test_7>:
 200:	00002097          	auipc	ra,0x2
 204:	e1c08093          	addi	ra,ra,-484 # 201c <tdat8>
 208:	aa00b137          	lui	sp,0xaa00b
 20c:	a001011b          	addiw	sp,sp,-1536
 210:	fe20ac23          	sw	sp,-8(ra)
 214:	ff80a703          	lw	a4,-8(ra)
 218:	aa00b3b7          	lui	t2,0xaa00b
 21c:	a003839b          	addiw	t2,t2,-1536
 220:	00700193          	li	gp,7
 224:	38771c63          	bne	a4,t2,5bc <fail>

0000000000000228 <test_8>:
 228:	00002097          	auipc	ra,0x2
 22c:	df408093          	addi	ra,ra,-524 # 201c <tdat8>
 230:	0aa01137          	lui	sp,0xaa01
 234:	aa01011b          	addiw	sp,sp,-1376
 238:	fe20ae23          	sw	sp,-4(ra)
 23c:	ffc0a703          	lw	a4,-4(ra)
 240:	0aa013b7          	lui	t2,0xaa01
 244:	aa03839b          	addiw	t2,t2,-1376
 248:	00800193          	li	gp,8
 24c:	36771863          	bne	a4,t2,5bc <fail>

0000000000000250 <test_9>:
 250:	00002097          	auipc	ra,0x2
 254:	dcc08093          	addi	ra,ra,-564 # 201c <tdat8>
 258:	a00aa137          	lui	sp,0xa00aa
 25c:	00a1011b          	addiw	sp,sp,10
 260:	0020a023          	sw	sp,0(ra)
 264:	0000a703          	lw	a4,0(ra)
 268:	a00aa3b7          	lui	t2,0xa00aa
 26c:	00a3839b          	addiw	t2,t2,10
 270:	00900193          	li	gp,9
 274:	34771463          	bne	a4,t2,5bc <fail>

0000000000000278 <test_10>:
 278:	00002097          	auipc	ra,0x2
 27c:	da808093          	addi	ra,ra,-600 # 2020 <tdat9>
 280:	12345137          	lui	sp,0x12345
 284:	6781011b          	addiw	sp,sp,1656
 288:	fe008213          	addi	tp,ra,-32
 28c:	02222023          	sw	sp,32(tp) # 20 <handle_exception+0x4>
 290:	0000a283          	lw	t0,0(ra)
 294:	123453b7          	lui	t2,0x12345
 298:	6783839b          	addiw	t2,t2,1656
 29c:	00a00193          	li	gp,10
 2a0:	30729e63          	bne	t0,t2,5bc <fail>

00000000000002a4 <test_11>:
 2a4:	00002097          	auipc	ra,0x2
 2a8:	d7c08093          	addi	ra,ra,-644 # 2020 <tdat9>
 2ac:	58213137          	lui	sp,0x58213
 2b0:	0981011b          	addiw	sp,sp,152
 2b4:	ffd08093          	addi	ra,ra,-3
 2b8:	0020a3a3          	sw	sp,7(ra)
 2bc:	00002217          	auipc	tp,0x2
 2c0:	d6820213          	addi	tp,tp,-664 # 2024 <tdat10>
 2c4:	00022283          	lw	t0,0(tp) # 0 <_start>
 2c8:	582133b7          	lui	t2,0x58213
 2cc:	0983839b          	addiw	t2,t2,152
 2d0:	00b00193          	li	gp,11
 2d4:	2e729463          	bne	t0,t2,5bc <fail>

00000000000002d8 <test_12>:
 2d8:	00c00193          	li	gp,12
 2dc:	00000213          	li	tp,0
 2e0:	aabbd0b7          	lui	ra,0xaabbd
 2e4:	cdd0809b          	addiw	ra,ra,-803
 2e8:	00002117          	auipc	sp,0x2
 2ec:	d1810113          	addi	sp,sp,-744 # 2000 <begin_signature>
 2f0:	00112023          	sw	ra,0(sp)
 2f4:	00012703          	lw	a4,0(sp)
 2f8:	aabbd3b7          	lui	t2,0xaabbd
 2fc:	cdd3839b          	addiw	t2,t2,-803
 300:	2a771e63          	bne	a4,t2,5bc <fail>
 304:	00120213          	addi	tp,tp,1 # 1 <_start+0x1>
 308:	00200293          	li	t0,2
 30c:	fc521ae3          	bne	tp,t0,2e0 <test_12+0x8>

0000000000000310 <test_13>:
 310:	00d00193          	li	gp,13
 314:	00000213          	li	tp,0
 318:	daabc0b7          	lui	ra,0xdaabc
 31c:	ccd0809b          	addiw	ra,ra,-819
 320:	00002117          	auipc	sp,0x2
 324:	ce010113          	addi	sp,sp,-800 # 2000 <begin_signature>
 328:	00000013          	nop
 32c:	00112223          	sw	ra,4(sp)
 330:	00412703          	lw	a4,4(sp)
 334:	daabc3b7          	lui	t2,0xdaabc
 338:	ccd3839b          	addiw	t2,t2,-819
 33c:	28771063          	bne	a4,t2,5bc <fail>
 340:	00120213          	addi	tp,tp,1 # 1 <_start+0x1>
 344:	00200293          	li	t0,2
 348:	fc5218e3          	bne	tp,t0,318 <test_13+0x8>

000000000000034c <test_14>:
 34c:	00e00193          	li	gp,14
 350:	00000213          	li	tp,0
 354:	ddaac0b7          	lui	ra,0xddaac
 358:	bcc0809b          	addiw	ra,ra,-1076
 35c:	00002117          	auipc	sp,0x2
 360:	ca410113          	addi	sp,sp,-860 # 2000 <begin_signature>
 364:	00000013          	nop
 368:	00000013          	nop
 36c:	00112423          	sw	ra,8(sp)
 370:	00812703          	lw	a4,8(sp)
 374:	ddaac3b7          	lui	t2,0xddaac
 378:	bcc3839b          	addiw	t2,t2,-1076
 37c:	24771063          	bne	a4,t2,5bc <fail>
 380:	00120213          	addi	tp,tp,1 # 1 <_start+0x1>
 384:	00200293          	li	t0,2
 388:	fc5216e3          	bne	tp,t0,354 <test_14+0x8>

000000000000038c <test_15>:
 38c:	00f00193          	li	gp,15
 390:	00000213          	li	tp,0
 394:	cddab0b7          	lui	ra,0xcddab
 398:	bbc0809b          	addiw	ra,ra,-1092
 39c:	00000013          	nop
 3a0:	00002117          	auipc	sp,0x2
 3a4:	c6010113          	addi	sp,sp,-928 # 2000 <begin_signature>
 3a8:	00112623          	sw	ra,12(sp)
 3ac:	00c12703          	lw	a4,12(sp)
 3b0:	cddab3b7          	lui	t2,0xcddab
 3b4:	bbc3839b          	addiw	t2,t2,-1092
 3b8:	20771263          	bne	a4,t2,5bc <fail>
 3bc:	00120213          	addi	tp,tp,1 # 1 <_start+0x1>
 3c0:	00200293          	li	t0,2
 3c4:	fc5218e3          	bne	tp,t0,394 <test_15+0x8>

00000000000003c8 <test_16>:
 3c8:	01000193          	li	gp,16
 3cc:	00000213          	li	tp,0
 3d0:	ccddb0b7          	lui	ra,0xccddb
 3d4:	abb0809b          	addiw	ra,ra,-1349
 3d8:	00000013          	nop
 3dc:	00002117          	auipc	sp,0x2
 3e0:	c2410113          	addi	sp,sp,-988 # 2000 <begin_signature>
 3e4:	00000013          	nop
 3e8:	00112823          	sw	ra,16(sp)
 3ec:	01012703          	lw	a4,16(sp)
 3f0:	ccddb3b7          	lui	t2,0xccddb
 3f4:	abb3839b          	addiw	t2,t2,-1349
 3f8:	1c771263          	bne	a4,t2,5bc <fail>
 3fc:	00120213          	addi	tp,tp,1 # 1 <_start+0x1>
 400:	00200293          	li	t0,2
 404:	fc5216e3          	bne	tp,t0,3d0 <test_16+0x8>

0000000000000408 <test_17>:
 408:	01100193          	li	gp,17
 40c:	00000213          	li	tp,0
 410:	bccde0b7          	lui	ra,0xbccde
 414:	aab0809b          	addiw	ra,ra,-1365
 418:	00000013          	nop
 41c:	00000013          	nop
 420:	00002117          	auipc	sp,0x2
 424:	be010113          	addi	sp,sp,-1056 # 2000 <begin_signature>
 428:	00112a23          	sw	ra,20(sp)
 42c:	01412703          	lw	a4,20(sp)
 430:	bccde3b7          	lui	t2,0xbccde
 434:	aab3839b          	addiw	t2,t2,-1365
 438:	18771263          	bne	a4,t2,5bc <fail>
 43c:	00120213          	addi	tp,tp,1 # 1 <_start+0x1>
 440:	00200293          	li	t0,2
 444:	fc5216e3          	bne	tp,t0,410 <test_17+0x8>

0000000000000448 <test_18>:
 448:	01200193          	li	gp,18
 44c:	00000213          	li	tp,0
 450:	00002117          	auipc	sp,0x2
 454:	bb010113          	addi	sp,sp,-1104 # 2000 <begin_signature>
 458:	001120b7          	lui	ra,0x112
 45c:	2330809b          	addiw	ra,ra,563
 460:	00112023          	sw	ra,0(sp)
 464:	00012703          	lw	a4,0(sp)
 468:	001123b7          	lui	t2,0x112
 46c:	2333839b          	addiw	t2,t2,563
 470:	14771663          	bne	a4,t2,5bc <fail>
 474:	00120213          	addi	tp,tp,1 # 1 <_start+0x1>
 478:	00200293          	li	t0,2
 47c:	fc521ae3          	bne	tp,t0,450 <test_18+0x8>

0000000000000480 <test_19>:
 480:	01300193          	li	gp,19
 484:	00000213          	li	tp,0
 488:	00002117          	auipc	sp,0x2
 48c:	b7810113          	addi	sp,sp,-1160 # 2000 <begin_signature>
 490:	300110b7          	lui	ra,0x30011
 494:	2230809b          	addiw	ra,ra,547
 498:	00000013          	nop
 49c:	00112223          	sw	ra,4(sp)
 4a0:	00412703          	lw	a4,4(sp)
 4a4:	300113b7          	lui	t2,0x30011
 4a8:	2233839b          	addiw	t2,t2,547
 4ac:	10771863          	bne	a4,t2,5bc <fail>
 4b0:	00120213          	addi	tp,tp,1 # 1 <_start+0x1>
 4b4:	00200293          	li	t0,2
 4b8:	fc5218e3          	bne	tp,t0,488 <test_19+0x8>

00000000000004bc <test_20>:
 4bc:	01400193          	li	gp,20
 4c0:	00000213          	li	tp,0
 4c4:	00002117          	auipc	sp,0x2
 4c8:	b3c10113          	addi	sp,sp,-1220 # 2000 <begin_signature>
 4cc:	330010b7          	lui	ra,0x33001
 4d0:	1220809b          	addiw	ra,ra,290
 4d4:	00000013          	nop
 4d8:	00000013          	nop
 4dc:	00112423          	sw	ra,8(sp)
 4e0:	00812703          	lw	a4,8(sp)
 4e4:	330013b7          	lui	t2,0x33001
 4e8:	1223839b          	addiw	t2,t2,290
 4ec:	0c771863          	bne	a4,t2,5bc <fail>
 4f0:	00120213          	addi	tp,tp,1 # 1 <_start+0x1>
 4f4:	00200293          	li	t0,2
 4f8:	fc5216e3          	bne	tp,t0,4c4 <test_20+0x8>

00000000000004fc <test_21>:
 4fc:	01500193          	li	gp,21
 500:	00000213          	li	tp,0
 504:	00002117          	auipc	sp,0x2
 508:	afc10113          	addi	sp,sp,-1284 # 2000 <begin_signature>
 50c:	00000013          	nop
 510:	233000b7          	lui	ra,0x23300
 514:	1120809b          	addiw	ra,ra,274
 518:	00112623          	sw	ra,12(sp)
 51c:	00c12703          	lw	a4,12(sp)
 520:	233003b7          	lui	t2,0x23300
 524:	1123839b          	addiw	t2,t2,274
 528:	08771a63          	bne	a4,t2,5bc <fail>
 52c:	00120213          	addi	tp,tp,1 # 1 <_start+0x1>
 530:	00200293          	li	t0,2
 534:	fc5218e3          	bne	tp,t0,504 <test_21+0x8>

0000000000000538 <test_22>:
 538:	01600193          	li	gp,22
 53c:	00000213          	li	tp,0
 540:	00002117          	auipc	sp,0x2
 544:	ac010113          	addi	sp,sp,-1344 # 2000 <begin_signature>
 548:	00000013          	nop
 54c:	223300b7          	lui	ra,0x22330
 550:	0110809b          	addiw	ra,ra,17
 554:	00000013          	nop
 558:	00112823          	sw	ra,16(sp)
 55c:	01012703          	lw	a4,16(sp)
 560:	223303b7          	lui	t2,0x22330
 564:	0113839b          	addiw	t2,t2,17
 568:	04771a63          	bne	a4,t2,5bc <fail>
 56c:	00120213          	addi	tp,tp,1 # 1 <_start+0x1>
 570:	00200293          	li	t0,2
 574:	fc5216e3          	bne	tp,t0,540 <test_22+0x8>

0000000000000578 <test_23>:
 578:	01700193          	li	gp,23
 57c:	00000213          	li	tp,0
 580:	00002117          	auipc	sp,0x2
 584:	a8010113          	addi	sp,sp,-1408 # 2000 <begin_signature>
 588:	00000013          	nop
 58c:	00000013          	nop
 590:	122330b7          	lui	ra,0x12233
 594:	0010809b          	addiw	ra,ra,1
 598:	00112a23          	sw	ra,20(sp)
 59c:	01412703          	lw	a4,20(sp)
 5a0:	122333b7          	lui	t2,0x12233
 5a4:	0013839b          	addiw	t2,t2,1
 5a8:	00771a63          	bne	a4,t2,5bc <fail>
 5ac:	00120213          	addi	tp,tp,1 # 1 <_start+0x1>
 5b0:	00200293          	li	t0,2
 5b4:	fc5216e3          	bne	tp,t0,580 <test_23+0x8>
 5b8:	04301263          	bne	zero,gp,5fc <pass>

00000000000005bc <fail>:
 5bc:	0ff0000f          	fence
 5c0:	00018063          	beqz	gp,5c0 <fail+0x4>
 5c4:	00119193          	slli	gp,gp,0x1
 5c8:	0011e193          	ori	gp,gp,1
 5cc:	05d00893          	li	a7,93
 5d0:	00018513          	mv	a0,gp
 5d4:	080002b7          	lui	t0,0x8000
 5d8:	7c029073          	csrw	0x7c0,t0
 5dc:	a0000337          	lui	t1,0xa0000
 5e0:	0013031b          	addiw	t1,t1,1
 5e4:	00c31313          	slli	t1,t1,0xc
 5e8:	a0b30313          	addi	t1,t1,-1525 # ffffffff9ffffa0b <_end+0xffffffff9fffd9db>
 5ec:	01331313          	slli	t1,t1,0x13
 5f0:	00100293          	li	t0,1
 5f4:	00530023          	sb	t0,0(t1)
 5f8:	00000073          	ecall

00000000000005fc <pass>:
 5fc:	0ff0000f          	fence
 600:	00100193          	li	gp,1
 604:	05d00893          	li	a7,93
 608:	00000513          	li	a0,0
 60c:	080002b7          	lui	t0,0x8000
 610:	7c029073          	csrw	0x7c0,t0
 614:	a0000337          	lui	t1,0xa0000
 618:	0013031b          	addiw	t1,t1,1
 61c:	00c31313          	slli	t1,t1,0xc
 620:	a0b30313          	addi	t1,t1,-1525 # ffffffff9ffffa0b <_end+0xffffffff9fffd9db>
 624:	01331313          	slli	t1,t1,0x13
 628:	0ff00293          	li	t0,255
 62c:	00530023          	sb	t0,0(t1)
 630:	00000073          	ecall
 634:	c0001073          	unimp
 638:	0000                	unimp
 63a:	0000                	unimp
 63c:	0000                	unimp
 63e:	0000                	unimp
