
rv64mi-p-mcsr:     file format elf64-littleriscv


Disassembly of section .text.init:

0000000000000000 <_start>:
   0:	0480006f          	j	48 <reset_vector>

0000000000000004 <trap_vector>:
   4:	00000f13          	li	t5,0
   8:	000f0463          	beqz	t5,10 <trap_vector+0xc>
   c:	000f0067          	jr	t5
  10:	34202f73          	csrr	t5,mcause
  14:	000f5463          	bgez	t5,1c <handle_exception>
  18:	0200006f          	j	38 <other_exception>

000000000000001c <handle_exception>:
  1c:	34202f73          	csrr	t5,mcause
  20:	00800f93          	li	t6,8
  24:	01ff0c63          	beq	t5,t6,3c <write_tohost>
  28:	00900f93          	li	t6,9
  2c:	01ff0863          	beq	t5,t6,3c <write_tohost>
  30:	00b00f93          	li	t6,11
  34:	01ff0463          	beq	t5,t6,3c <write_tohost>

0000000000000038 <other_exception>:
  38:	5391e193          	ori	gp,gp,1337

000000000000003c <write_tohost>:
  3c:	00001f17          	auipc	t5,0x1
  40:	fc3f2223          	sw	gp,-60(t5) # 1000 <tohost>
  44:	ff9ff06f          	j	3c <write_tohost>

0000000000000048 <reset_vector>:
  48:	00000093          	li	ra,0
  4c:	00000113          	li	sp,0
  50:	00000193          	li	gp,0
  54:	00000213          	li	tp,0
  58:	00000293          	li	t0,0
  5c:	00000313          	li	t1,0
  60:	00000393          	li	t2,0
  64:	00000413          	li	s0,0
  68:	00000493          	li	s1,0
  6c:	00000513          	li	a0,0
  70:	00000593          	li	a1,0
  74:	00000613          	li	a2,0
  78:	00000693          	li	a3,0
  7c:	00000713          	li	a4,0
  80:	00000793          	li	a5,0
  84:	00000813          	li	a6,0
  88:	00000893          	li	a7,0
  8c:	00000913          	li	s2,0
  90:	00000993          	li	s3,0
  94:	00000a13          	li	s4,0
  98:	00000a93          	li	s5,0
  9c:	00000b13          	li	s6,0
  a0:	00000b93          	li	s7,0
  a4:	00000c13          	li	s8,0
  a8:	00000c93          	li	s9,0
  ac:	00000d13          	li	s10,0
  b0:	00000d93          	li	s11,0
  b4:	00000e13          	li	t3,0
  b8:	00000e93          	li	t4,0
  bc:	00000f13          	li	t5,0
  c0:	00000f93          	li	t6,0
  c4:	f1402573          	csrr	a0,mhartid
  c8:	00051063          	bnez	a0,c8 <reset_vector+0x80>
  cc:	00000193          	li	gp,0
  d0:	00000297          	auipc	t0,0x0
  d4:	f3428293          	addi	t0,t0,-204 # 4 <trap_vector>
  d8:	30529073          	csrw	mtvec,t0
  dc:	00100513          	li	a0,1
  e0:	01f51513          	slli	a0,a0,0x1f
  e4:	02055e63          	bgez	a0,120 <reset_vector+0xd8>
  e8:	0ff0000f          	fence
  ec:	00100193          	li	gp,1
  f0:	05d00893          	li	a7,93
  f4:	00000513          	li	a0,0
  f8:	080002b7          	lui	t0,0x8000
  fc:	7c029073          	csrw	0x7c0,t0
 100:	a0000337          	lui	t1,0xa0000
 104:	0013031b          	addiw	t1,t1,1
 108:	00c31313          	slli	t1,t1,0xc
 10c:	a0b30313          	addi	t1,t1,-1525 # ffffffff9ffffa0b <_end+0xffffffff9fffda0b>
 110:	01331313          	slli	t1,t1,0x13
 114:	0ff00293          	li	t0,255
 118:	00530023          	sb	t0,0(t1)
 11c:	00000073          	ecall
 120:	30005073          	csrwi	mstatus,0
 124:	00002537          	lui	a0,0x2
 128:	8005051b          	addiw	a0,a0,-2048
 12c:	30052073          	csrs	mstatus,a0
 130:	00000297          	auipc	t0,0x0
 134:	01428293          	addi	t0,t0,20 # 144 <test_2>
 138:	34129073          	csrw	mepc,t0
 13c:	f1402573          	csrr	a0,mhartid
 140:	30200073          	mret

0000000000000144 <test_2>:
 144:	30102573          	csrr	a0,misa
 148:	03e55513          	srli	a0,a0,0x3e
 14c:	00200393          	li	t2,2
 150:	00200193          	li	gp,2
 154:	02751863          	bne	a0,t2,184 <fail>

0000000000000158 <test_3>:
 158:	f1402573          	csrr	a0,mhartid
 15c:	00000393          	li	t2,0
 160:	00300193          	li	gp,3
 164:	02751063          	bne	a0,t2,184 <fail>
 168:	f1302573          	csrr	a0,mimpid
 16c:	f1202573          	csrr	a0,marchid
 170:	f1102573          	csrr	a0,mvendorid
 174:	00000293          	li	t0,0
 178:	3052a073          	csrs	mtvec,t0
 17c:	3412a073          	csrs	mepc,t0
 180:	04301263          	bne	zero,gp,1c4 <pass>

0000000000000184 <fail>:
 184:	0ff0000f          	fence
 188:	00018063          	beqz	gp,188 <fail+0x4>
 18c:	00119193          	slli	gp,gp,0x1
 190:	0011e193          	ori	gp,gp,1
 194:	05d00893          	li	a7,93
 198:	00018513          	mv	a0,gp
 19c:	080002b7          	lui	t0,0x8000
 1a0:	7c029073          	csrw	0x7c0,t0
 1a4:	a0000337          	lui	t1,0xa0000
 1a8:	0013031b          	addiw	t1,t1,1
 1ac:	00c31313          	slli	t1,t1,0xc
 1b0:	a0b30313          	addi	t1,t1,-1525 # ffffffff9ffffa0b <_end+0xffffffff9fffda0b>
 1b4:	01331313          	slli	t1,t1,0x13
 1b8:	00100293          	li	t0,1
 1bc:	00530023          	sb	t0,0(t1)
 1c0:	00000073          	ecall

00000000000001c4 <pass>:
 1c4:	0ff0000f          	fence
 1c8:	00100193          	li	gp,1
 1cc:	05d00893          	li	a7,93
 1d0:	00000513          	li	a0,0
 1d4:	080002b7          	lui	t0,0x8000
 1d8:	7c029073          	csrw	0x7c0,t0
 1dc:	a0000337          	lui	t1,0xa0000
 1e0:	0013031b          	addiw	t1,t1,1
 1e4:	00c31313          	slli	t1,t1,0xc
 1e8:	a0b30313          	addi	t1,t1,-1525 # ffffffff9ffffa0b <_end+0xffffffff9fffda0b>
 1ec:	01331313          	slli	t1,t1,0x13
 1f0:	0ff00293          	li	t0,255
 1f4:	00530023          	sb	t0,0(t1)
 1f8:	00000073          	ecall
 1fc:	c0001073          	unimp
