
rv64uf-p-fclass:     file format elf64-littleriscv


Disassembly of section .text.init:

0000000000000000 <_start>:
   0:	0480006f          	j	48 <reset_vector>

0000000000000004 <trap_vector>:
   4:	00000f13          	li	t5,0
   8:	000f0463          	beqz	t5,10 <trap_vector+0xc>
   c:	000f0067          	jr	t5
  10:	34202f73          	csrr	t5,mcause
  14:	000f5463          	bgez	t5,1c <handle_exception>
  18:	0200006f          	j	38 <other_exception>

000000000000001c <handle_exception>:
  1c:	34202f73          	csrr	t5,mcause
  20:	00800f93          	li	t6,8
  24:	01ff0c63          	beq	t5,t6,3c <write_tohost>
  28:	00900f93          	li	t6,9
  2c:	01ff0863          	beq	t5,t6,3c <write_tohost>
  30:	00b00f93          	li	t6,11
  34:	01ff0463          	beq	t5,t6,3c <write_tohost>

0000000000000038 <other_exception>:
  38:	5391e193          	ori	gp,gp,1337

000000000000003c <write_tohost>:
  3c:	00001f17          	auipc	t5,0x1
  40:	fc3f2223          	sw	gp,-60(t5) # 1000 <tohost>
  44:	ff9ff06f          	j	3c <write_tohost>

0000000000000048 <reset_vector>:
  48:	00000093          	li	ra,0
  4c:	00000113          	li	sp,0
  50:	00000193          	li	gp,0
  54:	00000213          	li	tp,0
  58:	00000293          	li	t0,0
  5c:	00000313          	li	t1,0
  60:	00000393          	li	t2,0
  64:	00000413          	li	s0,0
  68:	00000493          	li	s1,0
  6c:	00000513          	li	a0,0
  70:	00000593          	li	a1,0
  74:	00000613          	li	a2,0
  78:	00000693          	li	a3,0
  7c:	00000713          	li	a4,0
  80:	00000793          	li	a5,0
  84:	00000813          	li	a6,0
  88:	00000893          	li	a7,0
  8c:	00000913          	li	s2,0
  90:	00000993          	li	s3,0
  94:	00000a13          	li	s4,0
  98:	00000a93          	li	s5,0
  9c:	00000b13          	li	s6,0
  a0:	00000b93          	li	s7,0
  a4:	00000c13          	li	s8,0
  a8:	00000c93          	li	s9,0
  ac:	00000d13          	li	s10,0
  b0:	00000d93          	li	s11,0
  b4:	00000e13          	li	t3,0
  b8:	00000e93          	li	t4,0
  bc:	00000f13          	li	t5,0
  c0:	00000f93          	li	t6,0
  c4:	f1402573          	csrr	a0,mhartid
  c8:	00051063          	bnez	a0,c8 <reset_vector+0x80>
  cc:	00000193          	li	gp,0
  d0:	00000297          	auipc	t0,0x0
  d4:	f3428293          	addi	t0,t0,-204 # 4 <trap_vector>
  d8:	30529073          	csrw	mtvec,t0
  dc:	00100513          	li	a0,1
  e0:	01f51513          	slli	a0,a0,0x1f
  e4:	02055e63          	bgez	a0,120 <reset_vector+0xd8>
  e8:	0ff0000f          	fence
  ec:	00100193          	li	gp,1
  f0:	05d00893          	li	a7,93
  f4:	00000513          	li	a0,0
  f8:	080002b7          	lui	t0,0x8000
  fc:	7c029073          	csrw	0x7c0,t0
 100:	a0000337          	lui	t1,0xa0000
 104:	0013031b          	addiw	t1,t1,1
 108:	00c31313          	slli	t1,t1,0xc
 10c:	a0b30313          	addi	t1,t1,-1525 # ffffffff9ffffa0b <_end+0xffffffff9fffda0b>
 110:	01331313          	slli	t1,t1,0x13
 114:	0ff00293          	li	t0,255
 118:	00530023          	sb	t0,0(t1)
 11c:	00000073          	ecall
 120:	30005073          	csrwi	mstatus,0
 124:	00002537          	lui	a0,0x2
 128:	30052073          	csrs	mstatus,a0
 12c:	00305073          	csrwi	fcsr,0
 130:	00000297          	auipc	t0,0x0
 134:	01428293          	addi	t0,t0,20 # 144 <test_2>
 138:	34129073          	csrw	mepc,t0
 13c:	f1402573          	csrr	a0,mhartid
 140:	30200073          	mret

0000000000000144 <test_2>:
 144:	1ff0051b          	addiw	a0,zero,511
 148:	01751513          	slli	a0,a0,0x17
 14c:	f0050553          	fmv.w.x	fa0,a0
 150:	e0051553          	fclass.s	a0,fa0
 154:	00100393          	li	t2,1
 158:	00200193          	li	gp,2
 15c:	0e751c63          	bne	a0,t2,254 <fail>

0000000000000160 <test_3>:
 160:	17f0051b          	addiw	a0,zero,383
 164:	01751513          	slli	a0,a0,0x17
 168:	f0050553          	fmv.w.x	fa0,a0
 16c:	e0051553          	fclass.s	a0,fa0
 170:	00200393          	li	t2,2
 174:	00300193          	li	gp,3
 178:	0c751e63          	bne	a0,t2,254 <fail>

000000000000017c <test_4>:
 17c:	1010051b          	addiw	a0,zero,257
 180:	01751513          	slli	a0,a0,0x17
 184:	fff50513          	addi	a0,a0,-1 # 1fff <fromhost+0xfbf>
 188:	f0050553          	fmv.w.x	fa0,a0
 18c:	e0051553          	fclass.s	a0,fa0
 190:	00400393          	li	t2,4
 194:	00400193          	li	gp,4
 198:	0a751e63          	bne	a0,t2,254 <fail>

000000000000019c <test_5>:
 19c:	0010051b          	addiw	a0,zero,1
 1a0:	01f51513          	slli	a0,a0,0x1f
 1a4:	f0050553          	fmv.w.x	fa0,a0
 1a8:	e0051553          	fclass.s	a0,fa0
 1ac:	00800393          	li	t2,8
 1b0:	00500193          	li	gp,5
 1b4:	0a751063          	bne	a0,t2,254 <fail>

00000000000001b8 <test_6>:
 1b8:	00000513          	li	a0,0
 1bc:	f0050553          	fmv.w.x	fa0,a0
 1c0:	e0051553          	fclass.s	a0,fa0
 1c4:	01000393          	li	t2,16
 1c8:	00600193          	li	gp,6
 1cc:	08751463          	bne	a0,t2,254 <fail>

00000000000001d0 <test_7>:
 1d0:	00800537          	lui	a0,0x800
 1d4:	fff5051b          	addiw	a0,a0,-1
 1d8:	f0050553          	fmv.w.x	fa0,a0
 1dc:	e0051553          	fclass.s	a0,fa0
 1e0:	02000393          	li	t2,32
 1e4:	00700193          	li	gp,7
 1e8:	06751663          	bne	a0,t2,254 <fail>

00000000000001ec <test_8>:
 1ec:	3f800537          	lui	a0,0x3f800
 1f0:	f0050553          	fmv.w.x	fa0,a0
 1f4:	e0051553          	fclass.s	a0,fa0
 1f8:	04000393          	li	t2,64
 1fc:	00800193          	li	gp,8
 200:	04751a63          	bne	a0,t2,254 <fail>

0000000000000204 <test_9>:
 204:	7f800537          	lui	a0,0x7f800
 208:	f0050553          	fmv.w.x	fa0,a0
 20c:	e0051553          	fclass.s	a0,fa0
 210:	08000393          	li	t2,128
 214:	00900193          	li	gp,9
 218:	02751e63          	bne	a0,t2,254 <fail>

000000000000021c <test_10>:
 21c:	7f800537          	lui	a0,0x7f800
 220:	0015051b          	addiw	a0,a0,1
 224:	f0050553          	fmv.w.x	fa0,a0
 228:	e0051553          	fclass.s	a0,fa0
 22c:	10000393          	li	t2,256
 230:	00a00193          	li	gp,10
 234:	02751063          	bne	a0,t2,254 <fail>

0000000000000238 <test_11>:
 238:	7fc00537          	lui	a0,0x7fc00
 23c:	f0050553          	fmv.w.x	fa0,a0
 240:	e0051553          	fclass.s	a0,fa0
 244:	20000393          	li	t2,512
 248:	00b00193          	li	gp,11
 24c:	00751463          	bne	a0,t2,254 <fail>
 250:	04301263          	bne	zero,gp,294 <pass>

0000000000000254 <fail>:
 254:	0ff0000f          	fence
 258:	00018063          	beqz	gp,258 <fail+0x4>
 25c:	00119193          	slli	gp,gp,0x1
 260:	0011e193          	ori	gp,gp,1
 264:	05d00893          	li	a7,93
 268:	00018513          	mv	a0,gp
 26c:	080002b7          	lui	t0,0x8000
 270:	7c029073          	csrw	0x7c0,t0
 274:	a0000337          	lui	t1,0xa0000
 278:	0013031b          	addiw	t1,t1,1
 27c:	00c31313          	slli	t1,t1,0xc
 280:	a0b30313          	addi	t1,t1,-1525 # ffffffff9ffffa0b <_end+0xffffffff9fffda0b>
 284:	01331313          	slli	t1,t1,0x13
 288:	00100293          	li	t0,1
 28c:	00530023          	sb	t0,0(t1)
 290:	00000073          	ecall

0000000000000294 <pass>:
 294:	0ff0000f          	fence
 298:	00100193          	li	gp,1
 29c:	05d00893          	li	a7,93
 2a0:	00000513          	li	a0,0
 2a4:	080002b7          	lui	t0,0x8000
 2a8:	7c029073          	csrw	0x7c0,t0
 2ac:	a0000337          	lui	t1,0xa0000
 2b0:	0013031b          	addiw	t1,t1,1
 2b4:	00c31313          	slli	t1,t1,0xc
 2b8:	a0b30313          	addi	t1,t1,-1525 # ffffffff9ffffa0b <_end+0xffffffff9fffda0b>
 2bc:	01331313          	slli	t1,t1,0x13
 2c0:	0ff00293          	li	t0,255
 2c4:	00530023          	sb	t0,0(t1)
 2c8:	00000073          	ecall
 2cc:	c0001073          	unimp
 2d0:	0000                	unimp
 2d2:	0000                	unimp
 2d4:	0000                	unimp
 2d6:	0000                	unimp
 2d8:	0000                	unimp
 2da:	0000                	unimp
 2dc:	0000                	unimp
 2de:	0000                	unimp
 2e0:	0000                	unimp
 2e2:	0000                	unimp
 2e4:	0000                	unimp
 2e6:	0000                	unimp
 2e8:	0000                	unimp
 2ea:	0000                	unimp
 2ec:	0000                	unimp
 2ee:	0000                	unimp
 2f0:	0000                	unimp
 2f2:	0000                	unimp
 2f4:	0000                	unimp
 2f6:	0000                	unimp
 2f8:	0000                	unimp
 2fa:	0000                	unimp
 2fc:	0000                	unimp
 2fe:	0000                	unimp
