
rv64ud-p-structural:     file format elf64-littleriscv


Disassembly of section .text.init:

0000000000000000 <_start>:
   0:	0480006f          	j	48 <reset_vector>

0000000000000004 <trap_vector>:
   4:	00000f13          	li	t5,0
   8:	000f0463          	beqz	t5,10 <trap_vector+0xc>
   c:	000f0067          	jr	t5
  10:	34202f73          	csrr	t5,mcause
  14:	000f5463          	bgez	t5,1c <handle_exception>
  18:	0200006f          	j	38 <other_exception>

000000000000001c <handle_exception>:
  1c:	34202f73          	csrr	t5,mcause
  20:	00800f93          	li	t6,8
  24:	01ff0c63          	beq	t5,t6,3c <write_tohost>
  28:	00900f93          	li	t6,9
  2c:	01ff0863          	beq	t5,t6,3c <write_tohost>
  30:	00b00f93          	li	t6,11
  34:	01ff0463          	beq	t5,t6,3c <write_tohost>

0000000000000038 <other_exception>:
  38:	5391e193          	ori	gp,gp,1337

000000000000003c <write_tohost>:
  3c:	00001f17          	auipc	t5,0x1
  40:	fc3f2223          	sw	gp,-60(t5) # 1000 <tohost>
  44:	ff9ff06f          	j	3c <write_tohost>

0000000000000048 <reset_vector>:
  48:	00000093          	li	ra,0
  4c:	00000113          	li	sp,0
  50:	00000193          	li	gp,0
  54:	00000213          	li	tp,0
  58:	00000293          	li	t0,0
  5c:	00000313          	li	t1,0
  60:	00000393          	li	t2,0
  64:	00000413          	li	s0,0
  68:	00000493          	li	s1,0
  6c:	00000513          	li	a0,0
  70:	00000593          	li	a1,0
  74:	00000613          	li	a2,0
  78:	00000693          	li	a3,0
  7c:	00000713          	li	a4,0
  80:	00000793          	li	a5,0
  84:	00000813          	li	a6,0
  88:	00000893          	li	a7,0
  8c:	00000913          	li	s2,0
  90:	00000993          	li	s3,0
  94:	00000a13          	li	s4,0
  98:	00000a93          	li	s5,0
  9c:	00000b13          	li	s6,0
  a0:	00000b93          	li	s7,0
  a4:	00000c13          	li	s8,0
  a8:	00000c93          	li	s9,0
  ac:	00000d13          	li	s10,0
  b0:	00000d93          	li	s11,0
  b4:	00000e13          	li	t3,0
  b8:	00000e93          	li	t4,0
  bc:	00000f13          	li	t5,0
  c0:	00000f93          	li	t6,0
  c4:	f1402573          	csrr	a0,mhartid
  c8:	00051063          	bnez	a0,c8 <reset_vector+0x80>
  cc:	00000193          	li	gp,0
  d0:	00000297          	auipc	t0,0x0
  d4:	f3428293          	addi	t0,t0,-204 # 4 <trap_vector>
  d8:	30529073          	csrw	mtvec,t0
  dc:	00100513          	li	a0,1
  e0:	01f51513          	slli	a0,a0,0x1f
  e4:	02055e63          	bgez	a0,120 <reset_vector+0xd8>
  e8:	0ff0000f          	fence
  ec:	00100193          	li	gp,1
  f0:	05d00893          	li	a7,93
  f4:	00000513          	li	a0,0
  f8:	080002b7          	lui	t0,0x8000
  fc:	7c029073          	csrw	0x7c0,t0
 100:	a0000337          	lui	t1,0xa0000
 104:	0013031b          	addiw	t1,t1,1
 108:	00c31313          	slli	t1,t1,0xc
 10c:	a0b30313          	addi	t1,t1,-1525 # ffffffff9ffffa0b <_end+0xffffffff9fffda0b>
 110:	01331313          	slli	t1,t1,0x13
 114:	0ff00293          	li	t0,255
 118:	00530023          	sb	t0,0(t1)
 11c:	00000073          	ecall
 120:	30005073          	csrwi	mstatus,0
 124:	00002537          	lui	a0,0x2
 128:	30052073          	csrs	mstatus,a0
 12c:	00305073          	csrwi	fcsr,0
 130:	00000297          	auipc	t0,0x0
 134:	01428293          	addi	t0,t0,20 # 144 <reset_vector+0xfc>
 138:	34129073          	csrw	mepc,t0
 13c:	f1402573          	csrr	a0,mhartid
 140:	30200073          	mret
 144:	00100613          	li	a2,1
 148:	3ff0011b          	addiw	sp,zero,1023
 14c:	03411113          	slli	sp,sp,0x34
 150:	3f8000b7          	lui	ra,0x3f800

0000000000000154 <test_1>:
 154:	00100193          	li	gp,1
 158:	f2000253          	fmv.d.x	ft4,zero
 15c:	f00001d3          	fmv.w.x	ft3,zero
 160:	f2010153          	fmv.d.x	ft2,sp
 164:	f00080d3          	fmv.w.x	ft1,ra
 168:	0180006f          	j	180 <test_1+0x2c>
 16c:	00000013          	nop
 170:	00000013          	nop
 174:	00000013          	nop
 178:	00000013          	nop
 17c:	00000013          	nop
 180:	12217253          	fmul.d	ft4,ft2,ft2
 184:	201081d3          	fmv.s	ft3,ft1
 188:	e2020253          	fmv.x.d	tp,ft4
 18c:	e00182d3          	fmv.x.w	t0,ft3
 190:	00508463          	beq	ra,t0,198 <test_1+0x44>
 194:	2500006f          	j	3e4 <fail>
 198:	00410463          	beq	sp,tp,1a0 <test_1+0x4c>
 19c:	2480006f          	j	3e4 <fail>
 1a0:	f2000153          	fmv.d.x	ft2,zero
 1a4:	f00000d3          	fmv.w.x	ft1,zero

00000000000001a8 <test_2>:
 1a8:	00200193          	li	gp,2
 1ac:	f2000253          	fmv.d.x	ft4,zero
 1b0:	f00001d3          	fmv.w.x	ft3,zero
 1b4:	f2010153          	fmv.d.x	ft2,sp
 1b8:	f00080d3          	fmv.w.x	ft1,ra
 1bc:	0040006f          	j	1c0 <test_2+0x18>
 1c0:	12217253          	fmul.d	ft4,ft2,ft2
 1c4:	00000013          	nop
 1c8:	201081d3          	fmv.s	ft3,ft1
 1cc:	e2020253          	fmv.x.d	tp,ft4
 1d0:	e00182d3          	fmv.x.w	t0,ft3
 1d4:	00508463          	beq	ra,t0,1dc <test_2+0x34>
 1d8:	20c0006f          	j	3e4 <fail>
 1dc:	00410463          	beq	sp,tp,1e4 <test_2+0x3c>
 1e0:	2040006f          	j	3e4 <fail>
 1e4:	f2000153          	fmv.d.x	ft2,zero
 1e8:	f00000d3          	fmv.w.x	ft1,zero

00000000000001ec <test_3>:
 1ec:	00300193          	li	gp,3
 1f0:	f2000253          	fmv.d.x	ft4,zero
 1f4:	f00001d3          	fmv.w.x	ft3,zero
 1f8:	f2010153          	fmv.d.x	ft2,sp
 1fc:	f00080d3          	fmv.w.x	ft1,ra
 200:	0200006f          	j	220 <test_3+0x34>
 204:	00000013          	nop
 208:	00000013          	nop
 20c:	00000013          	nop
 210:	00000013          	nop
 214:	00000013          	nop
 218:	00000013          	nop
 21c:	00000013          	nop
 220:	12217253          	fmul.d	ft4,ft2,ft2
 224:	00000013          	nop
 228:	00000013          	nop
 22c:	201081d3          	fmv.s	ft3,ft1
 230:	e2020253          	fmv.x.d	tp,ft4
 234:	e00182d3          	fmv.x.w	t0,ft3
 238:	00508463          	beq	ra,t0,240 <test_3+0x54>
 23c:	1a80006f          	j	3e4 <fail>
 240:	00410463          	beq	sp,tp,248 <test_3+0x5c>
 244:	1a00006f          	j	3e4 <fail>
 248:	f2000153          	fmv.d.x	ft2,zero
 24c:	f00000d3          	fmv.w.x	ft1,zero

0000000000000250 <test_4>:
 250:	00400193          	li	gp,4
 254:	f2000253          	fmv.d.x	ft4,zero
 258:	f00001d3          	fmv.w.x	ft3,zero
 25c:	f2010153          	fmv.d.x	ft2,sp
 260:	f00080d3          	fmv.w.x	ft1,ra
 264:	01c0006f          	j	280 <test_4+0x30>
 268:	00000013          	nop
 26c:	00000013          	nop
 270:	00000013          	nop
 274:	00000013          	nop
 278:	00000013          	nop
 27c:	00000013          	nop
 280:	12217253          	fmul.d	ft4,ft2,ft2
 284:	00000013          	nop
 288:	00000013          	nop
 28c:	00000013          	nop
 290:	201081d3          	fmv.s	ft3,ft1
 294:	e2020253          	fmv.x.d	tp,ft4
 298:	e00182d3          	fmv.x.w	t0,ft3
 29c:	00508463          	beq	ra,t0,2a4 <test_4+0x54>
 2a0:	1440006f          	j	3e4 <fail>
 2a4:	00410463          	beq	sp,tp,2ac <test_4+0x5c>
 2a8:	13c0006f          	j	3e4 <fail>
 2ac:	f2000153          	fmv.d.x	ft2,zero
 2b0:	f00000d3          	fmv.w.x	ft1,zero

00000000000002b4 <test_5>:
 2b4:	00500193          	li	gp,5
 2b8:	f2000253          	fmv.d.x	ft4,zero
 2bc:	f00001d3          	fmv.w.x	ft3,zero
 2c0:	f2010153          	fmv.d.x	ft2,sp
 2c4:	f00080d3          	fmv.w.x	ft1,ra
 2c8:	0180006f          	j	2e0 <test_5+0x2c>
 2cc:	00000013          	nop
 2d0:	00000013          	nop
 2d4:	00000013          	nop
 2d8:	00000013          	nop
 2dc:	00000013          	nop
 2e0:	12217253          	fmul.d	ft4,ft2,ft2
 2e4:	00000013          	nop
 2e8:	00000013          	nop
 2ec:	00000013          	nop
 2f0:	00000013          	nop
 2f4:	201081d3          	fmv.s	ft3,ft1
 2f8:	e2020253          	fmv.x.d	tp,ft4
 2fc:	e00182d3          	fmv.x.w	t0,ft3
 300:	00508463          	beq	ra,t0,308 <test_5+0x54>
 304:	0e00006f          	j	3e4 <fail>
 308:	00410463          	beq	sp,tp,310 <test_5+0x5c>
 30c:	0d80006f          	j	3e4 <fail>
 310:	f2000153          	fmv.d.x	ft2,zero
 314:	f00000d3          	fmv.w.x	ft1,zero

0000000000000318 <test_6>:
 318:	00600193          	li	gp,6
 31c:	f2000253          	fmv.d.x	ft4,zero
 320:	f00001d3          	fmv.w.x	ft3,zero
 324:	f2010153          	fmv.d.x	ft2,sp
 328:	f00080d3          	fmv.w.x	ft1,ra
 32c:	0140006f          	j	340 <test_6+0x28>
 330:	00000013          	nop
 334:	00000013          	nop
 338:	00000013          	nop
 33c:	00000013          	nop
 340:	12217253          	fmul.d	ft4,ft2,ft2
 344:	00000013          	nop
 348:	00000013          	nop
 34c:	00000013          	nop
 350:	00000013          	nop
 354:	00000013          	nop
 358:	201081d3          	fmv.s	ft3,ft1
 35c:	e2020253          	fmv.x.d	tp,ft4
 360:	e00182d3          	fmv.x.w	t0,ft3
 364:	00508463          	beq	ra,t0,36c <test_6+0x54>
 368:	07c0006f          	j	3e4 <fail>
 36c:	00410463          	beq	sp,tp,374 <test_6+0x5c>
 370:	0740006f          	j	3e4 <fail>
 374:	f2000153          	fmv.d.x	ft2,zero
 378:	f00000d3          	fmv.w.x	ft1,zero

000000000000037c <test_7>:
 37c:	00700193          	li	gp,7
 380:	f2000253          	fmv.d.x	ft4,zero
 384:	f00001d3          	fmv.w.x	ft3,zero
 388:	f2010153          	fmv.d.x	ft2,sp
 38c:	f00080d3          	fmv.w.x	ft1,ra
 390:	0100006f          	j	3a0 <test_7+0x24>
 394:	00000013          	nop
 398:	00000013          	nop
 39c:	00000013          	nop
 3a0:	12217253          	fmul.d	ft4,ft2,ft2
 3a4:	00000013          	nop
 3a8:	00000013          	nop
 3ac:	00000013          	nop
 3b0:	00000013          	nop
 3b4:	00000013          	nop
 3b8:	00000013          	nop
 3bc:	201081d3          	fmv.s	ft3,ft1
 3c0:	e2020253          	fmv.x.d	tp,ft4
 3c4:	e00182d3          	fmv.x.w	t0,ft3
 3c8:	00508463          	beq	ra,t0,3d0 <test_7+0x54>
 3cc:	0180006f          	j	3e4 <fail>
 3d0:	00410463          	beq	sp,tp,3d8 <test_7+0x5c>
 3d4:	0100006f          	j	3e4 <fail>
 3d8:	f2000153          	fmv.d.x	ft2,zero
 3dc:	f00000d3          	fmv.w.x	ft1,zero
 3e0:	04301263          	bne	zero,gp,424 <pass>

00000000000003e4 <fail>:
 3e4:	0ff0000f          	fence
 3e8:	00018063          	beqz	gp,3e8 <fail+0x4>
 3ec:	00119193          	slli	gp,gp,0x1
 3f0:	0011e193          	ori	gp,gp,1
 3f4:	05d00893          	li	a7,93
 3f8:	00018513          	mv	a0,gp
 3fc:	080002b7          	lui	t0,0x8000
 400:	7c029073          	csrw	0x7c0,t0
 404:	a0000337          	lui	t1,0xa0000
 408:	0013031b          	addiw	t1,t1,1
 40c:	00c31313          	slli	t1,t1,0xc
 410:	a0b30313          	addi	t1,t1,-1525 # ffffffff9ffffa0b <_end+0xffffffff9fffda0b>
 414:	01331313          	slli	t1,t1,0x13
 418:	00100293          	li	t0,1
 41c:	00530023          	sb	t0,0(t1)
 420:	00000073          	ecall

0000000000000424 <pass>:
 424:	0ff0000f          	fence
 428:	00100193          	li	gp,1
 42c:	05d00893          	li	a7,93
 430:	00000513          	li	a0,0
 434:	080002b7          	lui	t0,0x8000
 438:	7c029073          	csrw	0x7c0,t0
 43c:	a0000337          	lui	t1,0xa0000
 440:	0013031b          	addiw	t1,t1,1
 444:	00c31313          	slli	t1,t1,0xc
 448:	a0b30313          	addi	t1,t1,-1525 # ffffffff9ffffa0b <_end+0xffffffff9fffda0b>
 44c:	01331313          	slli	t1,t1,0x13
 450:	0ff00293          	li	t0,255
 454:	00530023          	sb	t0,0(t1)
 458:	00000073          	ecall
 45c:	c0001073          	unimp
 460:	0000                	unimp
 462:	0000                	unimp
 464:	0000                	unimp
 466:	0000                	unimp
 468:	0000                	unimp
 46a:	0000                	unimp
 46c:	0000                	unimp
 46e:	0000                	unimp
 470:	0000                	unimp
 472:	0000                	unimp
