
rv64mi-p-ma_fetch:     file format elf64-littleriscv


Disassembly of section .text.init:

0000000000000000 <_start>:
   0:	04c0006f          	j	4c <reset_vector>

0000000000000004 <trap_vector>:
   4:	00000f17          	auipc	t5,0x0
   8:	2bcf0f13          	addi	t5,t5,700 # 2c0 <mtvec_handler>
   c:	000f0463          	beqz	t5,14 <trap_vector+0x10>
  10:	000f0067          	jr	t5
  14:	34202f73          	csrr	t5,mcause
  18:	000f5463          	bgez	t5,20 <handle_exception>
  1c:	0200006f          	j	3c <other_exception>

0000000000000020 <handle_exception>:
  20:	34202f73          	csrr	t5,mcause
  24:	00800f93          	li	t6,8
  28:	01ff0c63          	beq	t5,t6,40 <write_tohost>
  2c:	00900f93          	li	t6,9
  30:	01ff0863          	beq	t5,t6,40 <write_tohost>
  34:	00b00f93          	li	t6,11
  38:	01ff0463          	beq	t5,t6,40 <write_tohost>

000000000000003c <other_exception>:
  3c:	5391e193          	ori	gp,gp,1337

0000000000000040 <write_tohost>:
  40:	00001f17          	auipc	t5,0x1
  44:	fc3f2023          	sw	gp,-64(t5) # 1000 <tohost>
  48:	ff9ff06f          	j	40 <write_tohost>

000000000000004c <reset_vector>:
  4c:	00000093          	li	ra,0
  50:	00000113          	li	sp,0
  54:	00000193          	li	gp,0
  58:	00000213          	li	tp,0
  5c:	00000293          	li	t0,0
  60:	00000313          	li	t1,0
  64:	00000393          	li	t2,0
  68:	00000413          	li	s0,0
  6c:	00000493          	li	s1,0
  70:	00000513          	li	a0,0
  74:	00000593          	li	a1,0
  78:	00000613          	li	a2,0
  7c:	00000693          	li	a3,0
  80:	00000713          	li	a4,0
  84:	00000793          	li	a5,0
  88:	00000813          	li	a6,0
  8c:	00000893          	li	a7,0
  90:	00000913          	li	s2,0
  94:	00000993          	li	s3,0
  98:	00000a13          	li	s4,0
  9c:	00000a93          	li	s5,0
  a0:	00000b13          	li	s6,0
  a4:	00000b93          	li	s7,0
  a8:	00000c13          	li	s8,0
  ac:	00000c93          	li	s9,0
  b0:	00000d13          	li	s10,0
  b4:	00000d93          	li	s11,0
  b8:	00000e13          	li	t3,0
  bc:	00000e93          	li	t4,0
  c0:	00000f13          	li	t5,0
  c4:	00000f93          	li	t6,0
  c8:	f1402573          	csrr	a0,mhartid
  cc:	00051063          	bnez	a0,cc <reset_vector+0x80>
  d0:	00000193          	li	gp,0
  d4:	00000297          	auipc	t0,0x0
  d8:	f3028293          	addi	t0,t0,-208 # 4 <trap_vector>
  dc:	30529073          	csrw	mtvec,t0
  e0:	00100513          	li	a0,1
  e4:	01f51513          	slli	a0,a0,0x1f
  e8:	02055e63          	bgez	a0,124 <reset_vector+0xd8>
  ec:	0ff0000f          	fence
  f0:	00100193          	li	gp,1
  f4:	05d00893          	li	a7,93
  f8:	00000513          	li	a0,0
  fc:	080002b7          	lui	t0,0x8000
 100:	7c029073          	csrw	0x7c0,t0
 104:	a0000337          	lui	t1,0xa0000
 108:	0013031b          	addiw	t1,t1,1
 10c:	00c31313          	slli	t1,t1,0xc
 110:	a0b30313          	addi	t1,t1,-1525 # ffffffff9ffffa0b <_end+0xffffffff9fffda0b>
 114:	01331313          	slli	t1,t1,0x13
 118:	0ff00293          	li	t0,255
 11c:	00530023          	sb	t0,0(t1)
 120:	00000073          	ecall
 124:	30005073          	csrwi	mstatus,0
 128:	00002537          	lui	a0,0x2
 12c:	8005051b          	addiw	a0,a0,-2048
 130:	30052073          	csrs	mstatus,a0
 134:	00000297          	auipc	t0,0x0
 138:	01428293          	addi	t0,t0,20 # 148 <reset_vector+0xfc>
 13c:	34129073          	csrw	mepc,t0
 140:	f1402573          	csrr	a0,mhartid
 144:	30200073          	mret
 148:	00200193          	li	gp,2
 14c:	00000313          	li	t1,0
 150:	00000297          	auipc	t0,0x0
 154:	00c28293          	addi	t0,t0,12 # 15c <reset_vector+0x110>
 158:	00228367          	jalr	t1,2(t0)
 15c:	a011                	j	160 <reset_vector+0x114>
 15e:	a019                	j	164 <reset_vector+0x118>
 160:	0e80006f          	j	248 <fail>
 164:	00300193          	li	gp,3
 168:	00000297          	auipc	t0,0x0
 16c:	00c28293          	addi	t0,t0,12 # 174 <reset_vector+0x128>
 170:	00128367          	jalr	t1,1(t0)
 174:	0080006f          	j	17c <reset_vector+0x130>
 178:	0d00006f          	j	248 <fail>
 17c:	00400193          	li	gp,4
 180:	00000313          	li	t1,0
 184:	00000297          	auipc	t0,0x0
 188:	00c28293          	addi	t0,t0,12 # 190 <reset_vector+0x144>
 18c:	00328367          	jalr	t1,3(t0)
 190:	a011                	j	194 <reset_vector+0x148>
 192:	a019                	j	198 <reset_vector+0x14c>
 194:	0b40006f          	j	248 <fail>
 198:	00500193          	li	gp,5
 19c:	00000313          	li	t1,0
 1a0:	00000297          	auipc	t0,0x0
 1a4:	00c28293          	addi	t0,t0,12 # 1ac <reset_vector+0x160>
 1a8:	0060036f          	jal	t1,1ae <reset_vector+0x162>
 1ac:	a011                	j	1b0 <reset_vector+0x164>
 1ae:	a019                	j	1b4 <reset_vector+0x168>
 1b0:	0980006f          	j	248 <fail>
 1b4:	00600193          	li	gp,6
 1b8:	00000313          	li	t1,0
 1bc:	00000297          	auipc	t0,0x0
 1c0:	00c28293          	addi	t0,t0,12 # 1c8 <reset_vector+0x17c>
 1c4:	00000363          	beqz	zero,1ca <reset_vector+0x17e>
 1c8:	a011                	j	1cc <reset_vector+0x180>
 1ca:	a019                	j	1d0 <reset_vector+0x184>
 1cc:	07c0006f          	j	248 <fail>
 1d0:	00700193          	li	gp,7
 1d4:	00001563          	bnez	zero,1de <reset_vector+0x192>
 1d8:	00c0006f          	j	1e4 <reset_vector+0x198>
 1dc:	a009                	j	1de <reset_vector+0x192>
 1de:	a009                	j	1e0 <reset_vector+0x194>
 1e0:	0680006f          	j	248 <fail>
 1e4:	00800193          	li	gp,8
 1e8:	301023f3          	csrr	t2,misa
 1ec:	0043f393          	andi	t2,t2,4
 1f0:	04038863          	beqz	t2,240 <reset_vector+0x1f4>
 1f4:	0001                	nop
 1f6:	30127073          	csrci	misa,4
 1fa:	0001                	nop
 1fc:	301023f3          	csrr	t2,misa
 200:	0043f393          	andi	t2,t2,4
 204:	04038263          	beqz	t2,248 <fail>
 208:	00000297          	auipc	t0,0x0
 20c:	03428293          	addi	t0,t0,52 # 23c <reset_vector+0x1f0>
 210:	ffe28293          	addi	t0,t0,-2
 214:	34129073          	csrw	mepc,t0
 218:	30127073          	csrci	misa,4
 21c:	301023f3          	csrr	t2,misa
 220:	0043f393          	andi	t2,t2,4
 224:	00039e63          	bnez	t2,240 <reset_vector+0x1f4>
 228:	000023b7          	lui	t2,0x2
 22c:	8003839b          	addiw	t2,t2,-2048
 230:	3003a073          	csrs	mstatus,t2
 234:	30200073          	mret
 238:	00000263          	beqz	zero,23c <reset_vector+0x1f0>
 23c:	30126073          	csrsi	misa,4
 240:	0480006f          	j	288 <pass>
 244:	04301263          	bne	zero,gp,288 <pass>

0000000000000248 <fail>:
 248:	0ff0000f          	fence
 24c:	00018063          	beqz	gp,24c <fail+0x4>
 250:	00119193          	slli	gp,gp,0x1
 254:	0011e193          	ori	gp,gp,1
 258:	05d00893          	li	a7,93
 25c:	00018513          	mv	a0,gp
 260:	080002b7          	lui	t0,0x8000
 264:	7c029073          	csrw	0x7c0,t0
 268:	a0000337          	lui	t1,0xa0000
 26c:	0013031b          	addiw	t1,t1,1
 270:	00c31313          	slli	t1,t1,0xc
 274:	a0b30313          	addi	t1,t1,-1525 # ffffffff9ffffa0b <_end+0xffffffff9fffda0b>
 278:	01331313          	slli	t1,t1,0x13
 27c:	00100293          	li	t0,1
 280:	00530023          	sb	t0,0(t1)
 284:	00000073          	ecall

0000000000000288 <pass>:
 288:	0ff0000f          	fence
 28c:	00100193          	li	gp,1
 290:	05d00893          	li	a7,93
 294:	00000513          	li	a0,0
 298:	080002b7          	lui	t0,0x8000
 29c:	7c029073          	csrw	0x7c0,t0
 2a0:	a0000337          	lui	t1,0xa0000
 2a4:	0013031b          	addiw	t1,t1,1
 2a8:	00c31313          	slli	t1,t1,0xc
 2ac:	a0b30313          	addi	t1,t1,-1525 # ffffffff9ffffa0b <_end+0xffffffff9fffda0b>
 2b0:	01331313          	slli	t1,t1,0x13
 2b4:	0ff00293          	li	t0,255
 2b8:	00530023          	sb	t0,0(t1)
 2bc:	00000073          	ecall

00000000000002c0 <mtvec_handler>:
 2c0:	00200513          	li	a0,2
 2c4:	02a18063          	beq	gp,a0,2e4 <mtvec_handler+0x24>
 2c8:	00400513          	li	a0,4
 2cc:	00a18c63          	beq	gp,a0,2e4 <mtvec_handler+0x24>
 2d0:	00500513          	li	a0,5
 2d4:	00a18863          	beq	gp,a0,2e4 <mtvec_handler+0x24>
 2d8:	00600513          	li	a0,6
 2dc:	00a18463          	beq	gp,a0,2e4 <mtvec_handler+0x24>
 2e0:	f69ff06f          	j	248 <fail>
 2e4:	f60312e3          	bnez	t1,248 <fail>
 2e8:	00000593          	li	a1,0
 2ec:	34202573          	csrr	a0,mcause
 2f0:	f4b51ce3          	bne	a0,a1,248 <fail>
 2f4:	341025f3          	csrr	a1,mepc
 2f8:	00458593          	addi	a1,a1,4
 2fc:	f4b296e3          	bne	t0,a1,248 <fail>
 300:	34302573          	csrr	a0,mtval
 304:	00050663          	beqz	a0,310 <mtvec_handler+0x50>
 308:	ffe50513          	addi	a0,a0,-2 # 1ffe <fromhost+0xfbe>
 30c:	f2551ee3          	bne	a0,t0,248 <fail>
 310:	00c58593          	addi	a1,a1,12
 314:	34159073          	csrw	mepc,a1
 318:	30200073          	mret
 31c:	c0001073          	unimp
 320:	0000                	unimp
 322:	0000                	unimp
 324:	0000                	unimp
 326:	0000                	unimp
 328:	0000                	unimp
 32a:	0000                	unimp
 32c:	0000                	unimp
 32e:	0000                	unimp
 330:	0000                	unimp
 332:	0000                	unimp
 334:	0000                	unimp
 336:	0000                	unimp
 338:	0000                	unimp
 33a:	0000                	unimp
 33c:	0000                	unimp
 33e:	0000                	unimp
 340:	0000                	unimp
 342:	0000                	unimp
