
rv64uf-p-recoding:     file format elf64-littleriscv


Disassembly of section .text.init:

0000000000000000 <_start>:
   0:	0480006f          	j	48 <reset_vector>

0000000000000004 <trap_vector>:
   4:	00000f13          	li	t5,0
   8:	000f0463          	beqz	t5,10 <trap_vector+0xc>
   c:	000f0067          	jr	t5
  10:	34202f73          	csrr	t5,mcause
  14:	000f5463          	bgez	t5,1c <handle_exception>
  18:	0200006f          	j	38 <other_exception>

000000000000001c <handle_exception>:
  1c:	34202f73          	csrr	t5,mcause
  20:	00800f93          	li	t6,8
  24:	01ff0c63          	beq	t5,t6,3c <write_tohost>
  28:	00900f93          	li	t6,9
  2c:	01ff0863          	beq	t5,t6,3c <write_tohost>
  30:	00b00f93          	li	t6,11
  34:	01ff0463          	beq	t5,t6,3c <write_tohost>

0000000000000038 <other_exception>:
  38:	5391e193          	ori	gp,gp,1337

000000000000003c <write_tohost>:
  3c:	00001f17          	auipc	t5,0x1
  40:	fc3f2223          	sw	gp,-60(t5) # 1000 <tohost>
  44:	ff9ff06f          	j	3c <write_tohost>

0000000000000048 <reset_vector>:
  48:	00000093          	li	ra,0
  4c:	00000113          	li	sp,0
  50:	00000193          	li	gp,0
  54:	00000213          	li	tp,0
  58:	00000293          	li	t0,0
  5c:	00000313          	li	t1,0
  60:	00000393          	li	t2,0
  64:	00000413          	li	s0,0
  68:	00000493          	li	s1,0
  6c:	00000513          	li	a0,0
  70:	00000593          	li	a1,0
  74:	00000613          	li	a2,0
  78:	00000693          	li	a3,0
  7c:	00000713          	li	a4,0
  80:	00000793          	li	a5,0
  84:	00000813          	li	a6,0
  88:	00000893          	li	a7,0
  8c:	00000913          	li	s2,0
  90:	00000993          	li	s3,0
  94:	00000a13          	li	s4,0
  98:	00000a93          	li	s5,0
  9c:	00000b13          	li	s6,0
  a0:	00000b93          	li	s7,0
  a4:	00000c13          	li	s8,0
  a8:	00000c93          	li	s9,0
  ac:	00000d13          	li	s10,0
  b0:	00000d93          	li	s11,0
  b4:	00000e13          	li	t3,0
  b8:	00000e93          	li	t4,0
  bc:	00000f13          	li	t5,0
  c0:	00000f93          	li	t6,0
  c4:	f1402573          	csrr	a0,mhartid
  c8:	00051063          	bnez	a0,c8 <reset_vector+0x80>
  cc:	00000193          	li	gp,0
  d0:	00000297          	auipc	t0,0x0
  d4:	f3428293          	addi	t0,t0,-204 # 4 <trap_vector>
  d8:	30529073          	csrw	mtvec,t0
  dc:	00100513          	li	a0,1
  e0:	01f51513          	slli	a0,a0,0x1f
  e4:	02055e63          	bgez	a0,120 <reset_vector+0xd8>
  e8:	0ff0000f          	fence
  ec:	00100193          	li	gp,1
  f0:	05d00893          	li	a7,93
  f4:	00000513          	li	a0,0
  f8:	080002b7          	lui	t0,0x8000
  fc:	7c029073          	csrw	0x7c0,t0
 100:	a0000337          	lui	t1,0xa0000
 104:	0013031b          	addiw	t1,t1,1
 108:	00c31313          	slli	t1,t1,0xc
 10c:	a0b30313          	addi	t1,t1,-1525 # ffffffff9ffffa0b <_end+0xffffffff9fffd9fb>
 110:	01331313          	slli	t1,t1,0x13
 114:	0ff00293          	li	t0,255
 118:	00530023          	sb	t0,0(t1)
 11c:	00000073          	ecall
 120:	30005073          	csrwi	mstatus,0
 124:	00002537          	lui	a0,0x2
 128:	30052073          	csrs	mstatus,a0
 12c:	00305073          	csrwi	fcsr,0
 130:	00000297          	auipc	t0,0x0
 134:	01428293          	addi	t0,t0,20 # 144 <reset_vector+0xfc>
 138:	34129073          	csrw	mepc,t0
 13c:	f1402573          	csrr	a0,mhartid
 140:	30200073          	mret
 144:	00002517          	auipc	a0,0x2
 148:	ebc52007          	flw	ft0,-324(a0) # 2000 <begin_signature>
 14c:	00002517          	auipc	a0,0x2
 150:	eb852087          	flw	ft1,-328(a0) # 2004 <three>
 154:	1000f0d3          	fmul.s	ft1,ft1,ft0

0000000000000158 <test_2>:
 158:	a0102553          	feq.s	a0,ft0,ft1
 15c:	00100393          	li	t2,1
 160:	00200193          	li	gp,2
 164:	06751463          	bne	a0,t2,1cc <fail>

0000000000000168 <test_3>:
 168:	a0100553          	fle.s	a0,ft0,ft1
 16c:	00100393          	li	t2,1
 170:	00300193          	li	gp,3
 174:	04751c63          	bne	a0,t2,1cc <fail>

0000000000000178 <test_4>:
 178:	a0101553          	flt.s	a0,ft0,ft1
 17c:	00000393          	li	t2,0
 180:	00400193          	li	gp,4
 184:	04751463          	bne	a0,t2,1cc <fail>
 188:	d0007053          	fcvt.s.w	ft0,zero
 18c:	00100513          	li	a0,1
 190:	d00570d3          	fcvt.s.w	ft1,a0
 194:	1000f0d3          	fmul.s	ft1,ft1,ft0

0000000000000198 <test_5>:
 198:	a0102553          	feq.s	a0,ft0,ft1
 19c:	00100393          	li	t2,1
 1a0:	00500193          	li	gp,5
 1a4:	02751463          	bne	a0,t2,1cc <fail>

00000000000001a8 <test_6>:
 1a8:	a0100553          	fle.s	a0,ft0,ft1
 1ac:	00100393          	li	t2,1
 1b0:	00600193          	li	gp,6
 1b4:	00751c63          	bne	a0,t2,1cc <fail>

00000000000001b8 <test_7>:
 1b8:	a0101553          	flt.s	a0,ft0,ft1
 1bc:	00000393          	li	t2,0
 1c0:	00700193          	li	gp,7
 1c4:	00751463          	bne	a0,t2,1cc <fail>
 1c8:	04301263          	bne	zero,gp,20c <pass>

00000000000001cc <fail>:
 1cc:	0ff0000f          	fence
 1d0:	00018063          	beqz	gp,1d0 <fail+0x4>
 1d4:	00119193          	slli	gp,gp,0x1
 1d8:	0011e193          	ori	gp,gp,1
 1dc:	05d00893          	li	a7,93
 1e0:	00018513          	mv	a0,gp
 1e4:	080002b7          	lui	t0,0x8000
 1e8:	7c029073          	csrw	0x7c0,t0
 1ec:	a0000337          	lui	t1,0xa0000
 1f0:	0013031b          	addiw	t1,t1,1
 1f4:	00c31313          	slli	t1,t1,0xc
 1f8:	a0b30313          	addi	t1,t1,-1525 # ffffffff9ffffa0b <_end+0xffffffff9fffd9fb>
 1fc:	01331313          	slli	t1,t1,0x13
 200:	00100293          	li	t0,1
 204:	00530023          	sb	t0,0(t1)
 208:	00000073          	ecall

000000000000020c <pass>:
 20c:	0ff0000f          	fence
 210:	00100193          	li	gp,1
 214:	05d00893          	li	a7,93
 218:	00000513          	li	a0,0
 21c:	080002b7          	lui	t0,0x8000
 220:	7c029073          	csrw	0x7c0,t0
 224:	a0000337          	lui	t1,0xa0000
 228:	0013031b          	addiw	t1,t1,1
 22c:	00c31313          	slli	t1,t1,0xc
 230:	a0b30313          	addi	t1,t1,-1525 # ffffffff9ffffa0b <_end+0xffffffff9fffd9fb>
 234:	01331313          	slli	t1,t1,0x13
 238:	0ff00293          	li	t0,255
 23c:	00530023          	sb	t0,0(t1)
 240:	00000073          	ecall
 244:	c0001073          	unimp
 248:	0000                	unimp
 24a:	0000                	unimp
 24c:	0000                	unimp
 24e:	0000                	unimp
 250:	0000                	unimp
 252:	0000                	unimp
 254:	0000                	unimp
 256:	0000                	unimp
 258:	0000                	unimp
 25a:	0000                	unimp
 25c:	0000                	unimp
 25e:	0000                	unimp
 260:	0000                	unimp
 262:	0000                	unimp
 264:	0000                	unimp
 266:	0000                	unimp
 268:	0000                	unimp
 26a:	0000                	unimp
 26c:	0000                	unimp
 26e:	0000                	unimp
 270:	0000                	unimp
 272:	0000                	unimp
 274:	0000                	unimp
 276:	0000                	unimp
 278:	0000                	unimp
 27a:	0000                	unimp
 27c:	0000                	unimp
 27e:	0000                	unimp
