
rv64ui-p-add:     file format elf64-littleriscv


Disassembly of section .text.init:

0000000000000000 <_start>:
   0:	0480006f          	j	48 <reset_vector>

0000000000000004 <trap_vector>:
   4:	00000f13          	li	t5,0
   8:	000f0463          	beqz	t5,10 <trap_vector+0xc>
   c:	000f0067          	jr	t5
  10:	34202f73          	csrr	t5,mcause
  14:	000f5463          	bgez	t5,1c <handle_exception>
  18:	0200006f          	j	38 <other_exception>

000000000000001c <handle_exception>:
  1c:	34202f73          	csrr	t5,mcause
  20:	00800f93          	li	t6,8
  24:	01ff0c63          	beq	t5,t6,3c <write_tohost>
  28:	00900f93          	li	t6,9
  2c:	01ff0863          	beq	t5,t6,3c <write_tohost>
  30:	00b00f93          	li	t6,11
  34:	01ff0463          	beq	t5,t6,3c <write_tohost>

0000000000000038 <other_exception>:
  38:	5391e193          	ori	gp,gp,1337

000000000000003c <write_tohost>:
  3c:	00001f17          	auipc	t5,0x1
  40:	fc3f2223          	sw	gp,-60(t5) # 1000 <tohost>
  44:	ff9ff06f          	j	3c <write_tohost>

0000000000000048 <reset_vector>:
  48:	00000093          	li	ra,0
  4c:	00000113          	li	sp,0
  50:	00000193          	li	gp,0
  54:	00000213          	li	tp,0
  58:	00000293          	li	t0,0
  5c:	00000313          	li	t1,0
  60:	00000393          	li	t2,0
  64:	00000413          	li	s0,0
  68:	00000493          	li	s1,0
  6c:	00000513          	li	a0,0
  70:	00000593          	li	a1,0
  74:	00000613          	li	a2,0
  78:	00000693          	li	a3,0
  7c:	00000713          	li	a4,0
  80:	00000793          	li	a5,0
  84:	00000813          	li	a6,0
  88:	00000893          	li	a7,0
  8c:	00000913          	li	s2,0
  90:	00000993          	li	s3,0
  94:	00000a13          	li	s4,0
  98:	00000a93          	li	s5,0
  9c:	00000b13          	li	s6,0
  a0:	00000b93          	li	s7,0
  a4:	00000c13          	li	s8,0
  a8:	00000c93          	li	s9,0
  ac:	00000d13          	li	s10,0
  b0:	00000d93          	li	s11,0
  b4:	00000e13          	li	t3,0
  b8:	00000e93          	li	t4,0
  bc:	00000f13          	li	t5,0
  c0:	00000f93          	li	t6,0
  c4:	f1402573          	csrr	a0,mhartid
  c8:	00051063          	bnez	a0,c8 <reset_vector+0x80>
  cc:	00000193          	li	gp,0
  d0:	00000297          	auipc	t0,0x0
  d4:	f3428293          	addi	t0,t0,-204 # 4 <trap_vector>
  d8:	30529073          	csrw	mtvec,t0
  dc:	00100513          	li	a0,1
  e0:	01f51513          	slli	a0,a0,0x1f
  e4:	02055e63          	bgez	a0,120 <reset_vector+0xd8>
  e8:	0ff0000f          	fence
  ec:	00100193          	li	gp,1
  f0:	05d00893          	li	a7,93
  f4:	00000513          	li	a0,0
  f8:	080002b7          	lui	t0,0x8000
  fc:	7c029073          	csrw	0x7c0,t0
 100:	a0000337          	lui	t1,0xa0000
 104:	0013031b          	addiw	t1,t1,1
 108:	00c31313          	slli	t1,t1,0xc
 10c:	a0b30313          	addi	t1,t1,-1525 # ffffffff9ffffa0b <_end+0xffffffff9fffda0b>
 110:	01331313          	slli	t1,t1,0x13
 114:	0ff00293          	li	t0,255
 118:	00530023          	sb	t0,0(t1)
 11c:	00000073          	ecall
 120:	30005073          	csrwi	mstatus,0
 124:	00000297          	auipc	t0,0x0
 128:	01428293          	addi	t0,t0,20 # 138 <test_2>
 12c:	34129073          	csrw	mepc,t0
 130:	f1402573          	csrr	a0,mhartid
 134:	30200073          	mret

0000000000000138 <test_2>:
 138:	00000093          	li	ra,0
 13c:	00000113          	li	sp,0
 140:	00208733          	add	a4,ra,sp
 144:	00000393          	li	t2,0
 148:	00200193          	li	gp,2
 14c:	4e771063          	bne	a4,t2,62c <fail>

0000000000000150 <test_3>:
 150:	00100093          	li	ra,1
 154:	00100113          	li	sp,1
 158:	00208733          	add	a4,ra,sp
 15c:	00200393          	li	t2,2
 160:	00300193          	li	gp,3
 164:	4c771463          	bne	a4,t2,62c <fail>

0000000000000168 <test_4>:
 168:	00300093          	li	ra,3
 16c:	00700113          	li	sp,7
 170:	00208733          	add	a4,ra,sp
 174:	00a00393          	li	t2,10
 178:	00400193          	li	gp,4
 17c:	4a771863          	bne	a4,t2,62c <fail>

0000000000000180 <test_5>:
 180:	00000093          	li	ra,0
 184:	ffff8137          	lui	sp,0xffff8
 188:	00208733          	add	a4,ra,sp
 18c:	ffff83b7          	lui	t2,0xffff8
 190:	00500193          	li	gp,5
 194:	48771c63          	bne	a4,t2,62c <fail>

0000000000000198 <test_6>:
 198:	800000b7          	lui	ra,0x80000
 19c:	00000113          	li	sp,0
 1a0:	00208733          	add	a4,ra,sp
 1a4:	800003b7          	lui	t2,0x80000
 1a8:	00600193          	li	gp,6
 1ac:	48771063          	bne	a4,t2,62c <fail>

00000000000001b0 <test_7>:
 1b0:	800000b7          	lui	ra,0x80000
 1b4:	ffff8137          	lui	sp,0xffff8
 1b8:	00208733          	add	a4,ra,sp
 1bc:	ffff03b7          	lui	t2,0xffff0
 1c0:	fff3839b          	addiw	t2,t2,-1
 1c4:	00f39393          	slli	t2,t2,0xf
 1c8:	00700193          	li	gp,7
 1cc:	46771063          	bne	a4,t2,62c <fail>

00000000000001d0 <test_8>:
 1d0:	00000093          	li	ra,0
 1d4:	00008137          	lui	sp,0x8
 1d8:	fff1011b          	addiw	sp,sp,-1
 1dc:	00208733          	add	a4,ra,sp
 1e0:	000083b7          	lui	t2,0x8
 1e4:	fff3839b          	addiw	t2,t2,-1
 1e8:	00800193          	li	gp,8
 1ec:	44771063          	bne	a4,t2,62c <fail>

00000000000001f0 <test_9>:
 1f0:	800000b7          	lui	ra,0x80000
 1f4:	fff0809b          	addiw	ra,ra,-1
 1f8:	00000113          	li	sp,0
 1fc:	00208733          	add	a4,ra,sp
 200:	800003b7          	lui	t2,0x80000
 204:	fff3839b          	addiw	t2,t2,-1
 208:	00900193          	li	gp,9
 20c:	42771063          	bne	a4,t2,62c <fail>

0000000000000210 <test_10>:
 210:	800000b7          	lui	ra,0x80000
 214:	fff0809b          	addiw	ra,ra,-1
 218:	00008137          	lui	sp,0x8
 21c:	fff1011b          	addiw	sp,sp,-1
 220:	00208733          	add	a4,ra,sp
 224:	000103b7          	lui	t2,0x10
 228:	0013839b          	addiw	t2,t2,1
 22c:	00f39393          	slli	t2,t2,0xf
 230:	ffe38393          	addi	t2,t2,-2 # fffe <_end+0xdffe>
 234:	00a00193          	li	gp,10
 238:	3e771a63          	bne	a4,t2,62c <fail>

000000000000023c <test_11>:
 23c:	800000b7          	lui	ra,0x80000
 240:	00008137          	lui	sp,0x8
 244:	fff1011b          	addiw	sp,sp,-1
 248:	00208733          	add	a4,ra,sp
 24c:	800083b7          	lui	t2,0x80008
 250:	fff3839b          	addiw	t2,t2,-1
 254:	00b00193          	li	gp,11
 258:	3c771a63          	bne	a4,t2,62c <fail>

000000000000025c <test_12>:
 25c:	800000b7          	lui	ra,0x80000
 260:	fff0809b          	addiw	ra,ra,-1
 264:	ffff8137          	lui	sp,0xffff8
 268:	00208733          	add	a4,ra,sp
 26c:	7fff83b7          	lui	t2,0x7fff8
 270:	fff3839b          	addiw	t2,t2,-1
 274:	00c00193          	li	gp,12
 278:	3a771a63          	bne	a4,t2,62c <fail>

000000000000027c <test_13>:
 27c:	00000093          	li	ra,0
 280:	fff00113          	li	sp,-1
 284:	00208733          	add	a4,ra,sp
 288:	fff00393          	li	t2,-1
 28c:	00d00193          	li	gp,13
 290:	38771e63          	bne	a4,t2,62c <fail>

0000000000000294 <test_14>:
 294:	fff00093          	li	ra,-1
 298:	00100113          	li	sp,1
 29c:	00208733          	add	a4,ra,sp
 2a0:	00000393          	li	t2,0
 2a4:	00e00193          	li	gp,14
 2a8:	38771263          	bne	a4,t2,62c <fail>

00000000000002ac <test_15>:
 2ac:	fff00093          	li	ra,-1
 2b0:	fff00113          	li	sp,-1
 2b4:	00208733          	add	a4,ra,sp
 2b8:	ffe00393          	li	t2,-2
 2bc:	00f00193          	li	gp,15
 2c0:	36771663          	bne	a4,t2,62c <fail>

00000000000002c4 <test_16>:
 2c4:	00100093          	li	ra,1
 2c8:	80000137          	lui	sp,0x80000
 2cc:	fff1011b          	addiw	sp,sp,-1
 2d0:	00208733          	add	a4,ra,sp
 2d4:	0010039b          	addiw	t2,zero,1
 2d8:	01f39393          	slli	t2,t2,0x1f
 2dc:	01000193          	li	gp,16
 2e0:	34771663          	bne	a4,t2,62c <fail>

00000000000002e4 <test_17>:
 2e4:	00d00093          	li	ra,13
 2e8:	00b00113          	li	sp,11
 2ec:	002080b3          	add	ra,ra,sp
 2f0:	01800393          	li	t2,24
 2f4:	01100193          	li	gp,17
 2f8:	32709a63          	bne	ra,t2,62c <fail>

00000000000002fc <test_18>:
 2fc:	00e00093          	li	ra,14
 300:	00b00113          	li	sp,11
 304:	00208133          	add	sp,ra,sp
 308:	01900393          	li	t2,25
 30c:	01200193          	li	gp,18
 310:	30711e63          	bne	sp,t2,62c <fail>

0000000000000314 <test_19>:
 314:	00d00093          	li	ra,13
 318:	001080b3          	add	ra,ra,ra
 31c:	01a00393          	li	t2,26
 320:	01300193          	li	gp,19
 324:	30709463          	bne	ra,t2,62c <fail>

0000000000000328 <test_20>:
 328:	00000213          	li	tp,0
 32c:	00d00093          	li	ra,13
 330:	00b00113          	li	sp,11
 334:	00208733          	add	a4,ra,sp
 338:	00070313          	mv	t1,a4
 33c:	00120213          	addi	tp,tp,1 # 1 <_start+0x1>
 340:	00200293          	li	t0,2
 344:	fe5214e3          	bne	tp,t0,32c <test_20+0x4>
 348:	01800393          	li	t2,24
 34c:	01400193          	li	gp,20
 350:	2c731e63          	bne	t1,t2,62c <fail>

0000000000000354 <test_21>:
 354:	00000213          	li	tp,0
 358:	00e00093          	li	ra,14
 35c:	00b00113          	li	sp,11
 360:	00208733          	add	a4,ra,sp
 364:	00000013          	nop
 368:	00070313          	mv	t1,a4
 36c:	00120213          	addi	tp,tp,1 # 1 <_start+0x1>
 370:	00200293          	li	t0,2
 374:	fe5212e3          	bne	tp,t0,358 <test_21+0x4>
 378:	01900393          	li	t2,25
 37c:	01500193          	li	gp,21
 380:	2a731663          	bne	t1,t2,62c <fail>

0000000000000384 <test_22>:
 384:	00000213          	li	tp,0
 388:	00f00093          	li	ra,15
 38c:	00b00113          	li	sp,11
 390:	00208733          	add	a4,ra,sp
 394:	00000013          	nop
 398:	00000013          	nop
 39c:	00070313          	mv	t1,a4
 3a0:	00120213          	addi	tp,tp,1 # 1 <_start+0x1>
 3a4:	00200293          	li	t0,2
 3a8:	fe5210e3          	bne	tp,t0,388 <test_22+0x4>
 3ac:	01a00393          	li	t2,26
 3b0:	01600193          	li	gp,22
 3b4:	26731c63          	bne	t1,t2,62c <fail>

00000000000003b8 <test_23>:
 3b8:	00000213          	li	tp,0
 3bc:	00d00093          	li	ra,13
 3c0:	00b00113          	li	sp,11
 3c4:	00208733          	add	a4,ra,sp
 3c8:	00120213          	addi	tp,tp,1 # 1 <_start+0x1>
 3cc:	00200293          	li	t0,2
 3d0:	fe5216e3          	bne	tp,t0,3bc <test_23+0x4>
 3d4:	01800393          	li	t2,24
 3d8:	01700193          	li	gp,23
 3dc:	24771863          	bne	a4,t2,62c <fail>

00000000000003e0 <test_24>:
 3e0:	00000213          	li	tp,0
 3e4:	00e00093          	li	ra,14
 3e8:	00b00113          	li	sp,11
 3ec:	00000013          	nop
 3f0:	00208733          	add	a4,ra,sp
 3f4:	00120213          	addi	tp,tp,1 # 1 <_start+0x1>
 3f8:	00200293          	li	t0,2
 3fc:	fe5214e3          	bne	tp,t0,3e4 <test_24+0x4>
 400:	01900393          	li	t2,25
 404:	01800193          	li	gp,24
 408:	22771263          	bne	a4,t2,62c <fail>

000000000000040c <test_25>:
 40c:	00000213          	li	tp,0
 410:	00f00093          	li	ra,15
 414:	00b00113          	li	sp,11
 418:	00000013          	nop
 41c:	00000013          	nop
 420:	00208733          	add	a4,ra,sp
 424:	00120213          	addi	tp,tp,1 # 1 <_start+0x1>
 428:	00200293          	li	t0,2
 42c:	fe5212e3          	bne	tp,t0,410 <test_25+0x4>
 430:	01a00393          	li	t2,26
 434:	01900193          	li	gp,25
 438:	1e771a63          	bne	a4,t2,62c <fail>

000000000000043c <test_26>:
 43c:	00000213          	li	tp,0
 440:	00d00093          	li	ra,13
 444:	00000013          	nop
 448:	00b00113          	li	sp,11
 44c:	00208733          	add	a4,ra,sp
 450:	00120213          	addi	tp,tp,1 # 1 <_start+0x1>
 454:	00200293          	li	t0,2
 458:	fe5214e3          	bne	tp,t0,440 <test_26+0x4>
 45c:	01800393          	li	t2,24
 460:	01a00193          	li	gp,26
 464:	1c771463          	bne	a4,t2,62c <fail>

0000000000000468 <test_27>:
 468:	00000213          	li	tp,0
 46c:	00e00093          	li	ra,14
 470:	00000013          	nop
 474:	00b00113          	li	sp,11
 478:	00000013          	nop
 47c:	00208733          	add	a4,ra,sp
 480:	00120213          	addi	tp,tp,1 # 1 <_start+0x1>
 484:	00200293          	li	t0,2
 488:	fe5212e3          	bne	tp,t0,46c <test_27+0x4>
 48c:	01900393          	li	t2,25
 490:	01b00193          	li	gp,27
 494:	18771c63          	bne	a4,t2,62c <fail>

0000000000000498 <test_28>:
 498:	00000213          	li	tp,0
 49c:	00f00093          	li	ra,15
 4a0:	00000013          	nop
 4a4:	00000013          	nop
 4a8:	00b00113          	li	sp,11
 4ac:	00208733          	add	a4,ra,sp
 4b0:	00120213          	addi	tp,tp,1 # 1 <_start+0x1>
 4b4:	00200293          	li	t0,2
 4b8:	fe5212e3          	bne	tp,t0,49c <test_28+0x4>
 4bc:	01a00393          	li	t2,26
 4c0:	01c00193          	li	gp,28
 4c4:	16771463          	bne	a4,t2,62c <fail>

00000000000004c8 <test_29>:
 4c8:	00000213          	li	tp,0
 4cc:	00b00113          	li	sp,11
 4d0:	00d00093          	li	ra,13
 4d4:	00208733          	add	a4,ra,sp
 4d8:	00120213          	addi	tp,tp,1 # 1 <_start+0x1>
 4dc:	00200293          	li	t0,2
 4e0:	fe5216e3          	bne	tp,t0,4cc <test_29+0x4>
 4e4:	01800393          	li	t2,24
 4e8:	01d00193          	li	gp,29
 4ec:	14771063          	bne	a4,t2,62c <fail>

00000000000004f0 <test_30>:
 4f0:	00000213          	li	tp,0
 4f4:	00b00113          	li	sp,11
 4f8:	00e00093          	li	ra,14
 4fc:	00000013          	nop
 500:	00208733          	add	a4,ra,sp
 504:	00120213          	addi	tp,tp,1 # 1 <_start+0x1>
 508:	00200293          	li	t0,2
 50c:	fe5214e3          	bne	tp,t0,4f4 <test_30+0x4>
 510:	01900393          	li	t2,25
 514:	01e00193          	li	gp,30
 518:	10771a63          	bne	a4,t2,62c <fail>

000000000000051c <test_31>:
 51c:	00000213          	li	tp,0
 520:	00b00113          	li	sp,11
 524:	00f00093          	li	ra,15
 528:	00000013          	nop
 52c:	00000013          	nop
 530:	00208733          	add	a4,ra,sp
 534:	00120213          	addi	tp,tp,1 # 1 <_start+0x1>
 538:	00200293          	li	t0,2
 53c:	fe5212e3          	bne	tp,t0,520 <test_31+0x4>
 540:	01a00393          	li	t2,26
 544:	01f00193          	li	gp,31
 548:	0e771263          	bne	a4,t2,62c <fail>

000000000000054c <test_32>:
 54c:	00000213          	li	tp,0
 550:	00b00113          	li	sp,11
 554:	00000013          	nop
 558:	00d00093          	li	ra,13
 55c:	00208733          	add	a4,ra,sp
 560:	00120213          	addi	tp,tp,1 # 1 <_start+0x1>
 564:	00200293          	li	t0,2
 568:	fe5214e3          	bne	tp,t0,550 <test_32+0x4>
 56c:	01800393          	li	t2,24
 570:	02000193          	li	gp,32
 574:	0a771c63          	bne	a4,t2,62c <fail>

0000000000000578 <test_33>:
 578:	00000213          	li	tp,0
 57c:	00b00113          	li	sp,11
 580:	00000013          	nop
 584:	00e00093          	li	ra,14
 588:	00000013          	nop
 58c:	00208733          	add	a4,ra,sp
 590:	00120213          	addi	tp,tp,1 # 1 <_start+0x1>
 594:	00200293          	li	t0,2
 598:	fe5212e3          	bne	tp,t0,57c <test_33+0x4>
 59c:	01900393          	li	t2,25
 5a0:	02100193          	li	gp,33
 5a4:	08771463          	bne	a4,t2,62c <fail>

00000000000005a8 <test_34>:
 5a8:	00000213          	li	tp,0
 5ac:	00b00113          	li	sp,11
 5b0:	00000013          	nop
 5b4:	00000013          	nop
 5b8:	00f00093          	li	ra,15
 5bc:	00208733          	add	a4,ra,sp
 5c0:	00120213          	addi	tp,tp,1 # 1 <_start+0x1>
 5c4:	00200293          	li	t0,2
 5c8:	fe5212e3          	bne	tp,t0,5ac <test_34+0x4>
 5cc:	01a00393          	li	t2,26
 5d0:	02200193          	li	gp,34
 5d4:	04771c63          	bne	a4,t2,62c <fail>

00000000000005d8 <test_35>:
 5d8:	00f00093          	li	ra,15
 5dc:	00100133          	add	sp,zero,ra
 5e0:	00f00393          	li	t2,15
 5e4:	02300193          	li	gp,35
 5e8:	04711263          	bne	sp,t2,62c <fail>

00000000000005ec <test_36>:
 5ec:	02000093          	li	ra,32
 5f0:	00008133          	add	sp,ra,zero
 5f4:	02000393          	li	t2,32
 5f8:	02400193          	li	gp,36
 5fc:	02711863          	bne	sp,t2,62c <fail>

0000000000000600 <test_37>:
 600:	000000b3          	add	ra,zero,zero
 604:	00000393          	li	t2,0
 608:	02500193          	li	gp,37
 60c:	02709063          	bne	ra,t2,62c <fail>

0000000000000610 <test_38>:
 610:	01000093          	li	ra,16
 614:	01e00113          	li	sp,30
 618:	00208033          	add	zero,ra,sp
 61c:	00000393          	li	t2,0
 620:	02600193          	li	gp,38
 624:	00701463          	bne	zero,t2,62c <fail>
 628:	04301263          	bne	zero,gp,66c <pass>

000000000000062c <fail>:
 62c:	0ff0000f          	fence
 630:	00018063          	beqz	gp,630 <fail+0x4>
 634:	00119193          	slli	gp,gp,0x1
 638:	0011e193          	ori	gp,gp,1
 63c:	05d00893          	li	a7,93
 640:	00018513          	mv	a0,gp
 644:	080002b7          	lui	t0,0x8000
 648:	7c029073          	csrw	0x7c0,t0
 64c:	a0000337          	lui	t1,0xa0000
 650:	0013031b          	addiw	t1,t1,1
 654:	00c31313          	slli	t1,t1,0xc
 658:	a0b30313          	addi	t1,t1,-1525 # ffffffff9ffffa0b <_end+0xffffffff9fffda0b>
 65c:	01331313          	slli	t1,t1,0x13
 660:	00100293          	li	t0,1
 664:	00530023          	sb	t0,0(t1)
 668:	00000073          	ecall

000000000000066c <pass>:
 66c:	0ff0000f          	fence
 670:	00100193          	li	gp,1
 674:	05d00893          	li	a7,93
 678:	00000513          	li	a0,0
 67c:	080002b7          	lui	t0,0x8000
 680:	7c029073          	csrw	0x7c0,t0
 684:	a0000337          	lui	t1,0xa0000
 688:	0013031b          	addiw	t1,t1,1
 68c:	00c31313          	slli	t1,t1,0xc
 690:	a0b30313          	addi	t1,t1,-1525 # ffffffff9ffffa0b <_end+0xffffffff9fffda0b>
 694:	01331313          	slli	t1,t1,0x13
 698:	0ff00293          	li	t0,255
 69c:	00530023          	sb	t0,0(t1)
 6a0:	00000073          	ecall
 6a4:	c0001073          	unimp
 6a8:	0000                	unimp
 6aa:	0000                	unimp
 6ac:	0000                	unimp
 6ae:	0000                	unimp
 6b0:	0000                	unimp
 6b2:	0000                	unimp
 6b4:	0000                	unimp
 6b6:	0000                	unimp
 6b8:	0000                	unimp
 6ba:	0000                	unimp
 6bc:	0000                	unimp
 6be:	0000                	unimp
