
rv64uf-p-fadd:     file format elf64-littleriscv


Disassembly of section .text.init:

0000000000000000 <_start>:
   0:	0480006f          	j	48 <reset_vector>

0000000000000004 <trap_vector>:
   4:	00000f13          	li	t5,0
   8:	000f0463          	beqz	t5,10 <trap_vector+0xc>
   c:	000f0067          	jr	t5
  10:	34202f73          	csrr	t5,mcause
  14:	000f5463          	bgez	t5,1c <handle_exception>
  18:	0200006f          	j	38 <other_exception>

000000000000001c <handle_exception>:
  1c:	34202f73          	csrr	t5,mcause
  20:	00800f93          	li	t6,8
  24:	01ff0c63          	beq	t5,t6,3c <write_tohost>
  28:	00900f93          	li	t6,9
  2c:	01ff0863          	beq	t5,t6,3c <write_tohost>
  30:	00b00f93          	li	t6,11
  34:	01ff0463          	beq	t5,t6,3c <write_tohost>

0000000000000038 <other_exception>:
  38:	5391e193          	ori	gp,gp,1337

000000000000003c <write_tohost>:
  3c:	00001f17          	auipc	t5,0x1
  40:	fc3f2223          	sw	gp,-60(t5) # 1000 <tohost>
  44:	ff9ff06f          	j	3c <write_tohost>

0000000000000048 <reset_vector>:
  48:	00000093          	li	ra,0
  4c:	00000113          	li	sp,0
  50:	00000193          	li	gp,0
  54:	00000213          	li	tp,0
  58:	00000293          	li	t0,0
  5c:	00000313          	li	t1,0
  60:	00000393          	li	t2,0
  64:	00000413          	li	s0,0
  68:	00000493          	li	s1,0
  6c:	00000513          	li	a0,0
  70:	00000593          	li	a1,0
  74:	00000613          	li	a2,0
  78:	00000693          	li	a3,0
  7c:	00000713          	li	a4,0
  80:	00000793          	li	a5,0
  84:	00000813          	li	a6,0
  88:	00000893          	li	a7,0
  8c:	00000913          	li	s2,0
  90:	00000993          	li	s3,0
  94:	00000a13          	li	s4,0
  98:	00000a93          	li	s5,0
  9c:	00000b13          	li	s6,0
  a0:	00000b93          	li	s7,0
  a4:	00000c13          	li	s8,0
  a8:	00000c93          	li	s9,0
  ac:	00000d13          	li	s10,0
  b0:	00000d93          	li	s11,0
  b4:	00000e13          	li	t3,0
  b8:	00000e93          	li	t4,0
  bc:	00000f13          	li	t5,0
  c0:	00000f93          	li	t6,0
  c4:	f1402573          	csrr	a0,mhartid
  c8:	00051063          	bnez	a0,c8 <reset_vector+0x80>
  cc:	00000193          	li	gp,0
  d0:	00000297          	auipc	t0,0x0
  d4:	f3428293          	addi	t0,t0,-204 # 4 <trap_vector>
  d8:	30529073          	csrw	mtvec,t0
  dc:	00100513          	li	a0,1
  e0:	01f51513          	slli	a0,a0,0x1f
  e4:	02055e63          	bgez	a0,120 <reset_vector+0xd8>
  e8:	0ff0000f          	fence
  ec:	00100193          	li	gp,1
  f0:	05d00893          	li	a7,93
  f4:	00000513          	li	a0,0
  f8:	080002b7          	lui	t0,0x8000
  fc:	7c029073          	csrw	0x7c0,t0
 100:	a0000337          	lui	t1,0xa0000
 104:	0013031b          	addiw	t1,t1,1
 108:	00c31313          	slli	t1,t1,0xc
 10c:	a0b30313          	addi	t1,t1,-1525 # ffffffff9ffffa0b <_end+0xffffffff9fffd96b>
 110:	01331313          	slli	t1,t1,0x13
 114:	0ff00293          	li	t0,255
 118:	00530023          	sb	t0,0(t1)
 11c:	00000073          	ecall
 120:	30005073          	csrwi	mstatus,0
 124:	00002537          	lui	a0,0x2
 128:	30052073          	csrs	mstatus,a0
 12c:	00305073          	csrwi	fcsr,0
 130:	00000297          	auipc	t0,0x0
 134:	01428293          	addi	t0,t0,20 # 144 <test_2>
 138:	34129073          	csrw	mepc,t0
 13c:	f1402573          	csrr	a0,mhartid
 140:	30200073          	mret

0000000000000144 <test_2>:
 144:	00200193          	li	gp,2
 148:	00002517          	auipc	a0,0x2
 14c:	eb850513          	addi	a0,a0,-328 # 2000 <test_2_data>
 150:	00052007          	flw	ft0,0(a0)
 154:	00452087          	flw	ft1,4(a0)
 158:	00852107          	flw	ft2,8(a0)
 15c:	00c52683          	lw	a3,12(a0)
 160:	001071d3          	fadd.s	ft3,ft0,ft1
 164:	e0018553          	fmv.x.w	a0,ft3
 168:	001015f3          	fsflags	a1,zero
 16c:	00000613          	li	a2,0
 170:	1ed51063          	bne	a0,a3,350 <fail>
 174:	1cc59e63          	bne	a1,a2,350 <fail>

0000000000000178 <test_3>:
 178:	00300193          	li	gp,3
 17c:	00002517          	auipc	a0,0x2
 180:	e9450513          	addi	a0,a0,-364 # 2010 <test_3_data>
 184:	00052007          	flw	ft0,0(a0)
 188:	00452087          	flw	ft1,4(a0)
 18c:	00852107          	flw	ft2,8(a0)
 190:	00c52683          	lw	a3,12(a0)
 194:	001071d3          	fadd.s	ft3,ft0,ft1
 198:	e0018553          	fmv.x.w	a0,ft3
 19c:	001015f3          	fsflags	a1,zero
 1a0:	00100613          	li	a2,1
 1a4:	1ad51663          	bne	a0,a3,350 <fail>
 1a8:	1ac59463          	bne	a1,a2,350 <fail>

00000000000001ac <test_4>:
 1ac:	00400193          	li	gp,4
 1b0:	00002517          	auipc	a0,0x2
 1b4:	e7050513          	addi	a0,a0,-400 # 2020 <test_4_data>
 1b8:	00052007          	flw	ft0,0(a0)
 1bc:	00452087          	flw	ft1,4(a0)
 1c0:	00852107          	flw	ft2,8(a0)
 1c4:	00c52683          	lw	a3,12(a0)
 1c8:	001071d3          	fadd.s	ft3,ft0,ft1
 1cc:	e0018553          	fmv.x.w	a0,ft3
 1d0:	001015f3          	fsflags	a1,zero
 1d4:	00100613          	li	a2,1
 1d8:	16d51c63          	bne	a0,a3,350 <fail>
 1dc:	16c59a63          	bne	a1,a2,350 <fail>

00000000000001e0 <test_5>:
 1e0:	00500193          	li	gp,5
 1e4:	00002517          	auipc	a0,0x2
 1e8:	e4c50513          	addi	a0,a0,-436 # 2030 <test_5_data>
 1ec:	00052007          	flw	ft0,0(a0)
 1f0:	00452087          	flw	ft1,4(a0)
 1f4:	00852107          	flw	ft2,8(a0)
 1f8:	00c52683          	lw	a3,12(a0)
 1fc:	081071d3          	fsub.s	ft3,ft0,ft1
 200:	e0018553          	fmv.x.w	a0,ft3
 204:	001015f3          	fsflags	a1,zero
 208:	00000613          	li	a2,0
 20c:	14d51263          	bne	a0,a3,350 <fail>
 210:	14c59063          	bne	a1,a2,350 <fail>

0000000000000214 <test_6>:
 214:	00600193          	li	gp,6
 218:	00002517          	auipc	a0,0x2
 21c:	e2850513          	addi	a0,a0,-472 # 2040 <test_6_data>
 220:	00052007          	flw	ft0,0(a0)
 224:	00452087          	flw	ft1,4(a0)
 228:	00852107          	flw	ft2,8(a0)
 22c:	00c52683          	lw	a3,12(a0)
 230:	081071d3          	fsub.s	ft3,ft0,ft1
 234:	e0018553          	fmv.x.w	a0,ft3
 238:	001015f3          	fsflags	a1,zero
 23c:	00100613          	li	a2,1
 240:	10d51863          	bne	a0,a3,350 <fail>
 244:	10c59663          	bne	a1,a2,350 <fail>

0000000000000248 <test_7>:
 248:	00700193          	li	gp,7
 24c:	00002517          	auipc	a0,0x2
 250:	e0450513          	addi	a0,a0,-508 # 2050 <test_7_data>
 254:	00052007          	flw	ft0,0(a0)
 258:	00452087          	flw	ft1,4(a0)
 25c:	00852107          	flw	ft2,8(a0)
 260:	00c52683          	lw	a3,12(a0)
 264:	081071d3          	fsub.s	ft3,ft0,ft1
 268:	e0018553          	fmv.x.w	a0,ft3
 26c:	001015f3          	fsflags	a1,zero
 270:	00100613          	li	a2,1
 274:	0cd51e63          	bne	a0,a3,350 <fail>
 278:	0cc59c63          	bne	a1,a2,350 <fail>

000000000000027c <test_8>:
 27c:	00800193          	li	gp,8
 280:	00002517          	auipc	a0,0x2
 284:	de050513          	addi	a0,a0,-544 # 2060 <test_8_data>
 288:	00052007          	flw	ft0,0(a0)
 28c:	00452087          	flw	ft1,4(a0)
 290:	00852107          	flw	ft2,8(a0)
 294:	00c52683          	lw	a3,12(a0)
 298:	101071d3          	fmul.s	ft3,ft0,ft1
 29c:	e0018553          	fmv.x.w	a0,ft3
 2a0:	001015f3          	fsflags	a1,zero
 2a4:	00000613          	li	a2,0
 2a8:	0ad51463          	bne	a0,a3,350 <fail>
 2ac:	0ac59263          	bne	a1,a2,350 <fail>

00000000000002b0 <test_9>:
 2b0:	00900193          	li	gp,9
 2b4:	00002517          	auipc	a0,0x2
 2b8:	dbc50513          	addi	a0,a0,-580 # 2070 <test_9_data>
 2bc:	00052007          	flw	ft0,0(a0)
 2c0:	00452087          	flw	ft1,4(a0)
 2c4:	00852107          	flw	ft2,8(a0)
 2c8:	00c52683          	lw	a3,12(a0)
 2cc:	101071d3          	fmul.s	ft3,ft0,ft1
 2d0:	e0018553          	fmv.x.w	a0,ft3
 2d4:	001015f3          	fsflags	a1,zero
 2d8:	00100613          	li	a2,1
 2dc:	06d51a63          	bne	a0,a3,350 <fail>
 2e0:	06c59863          	bne	a1,a2,350 <fail>

00000000000002e4 <test_10>:
 2e4:	00a00193          	li	gp,10
 2e8:	00002517          	auipc	a0,0x2
 2ec:	d9850513          	addi	a0,a0,-616 # 2080 <test_10_data>
 2f0:	00052007          	flw	ft0,0(a0)
 2f4:	00452087          	flw	ft1,4(a0)
 2f8:	00852107          	flw	ft2,8(a0)
 2fc:	00c52683          	lw	a3,12(a0)
 300:	101071d3          	fmul.s	ft3,ft0,ft1
 304:	e0018553          	fmv.x.w	a0,ft3
 308:	001015f3          	fsflags	a1,zero
 30c:	00100613          	li	a2,1
 310:	04d51063          	bne	a0,a3,350 <fail>
 314:	02c59e63          	bne	a1,a2,350 <fail>

0000000000000318 <test_11>:
 318:	00b00193          	li	gp,11
 31c:	00002517          	auipc	a0,0x2
 320:	d7450513          	addi	a0,a0,-652 # 2090 <test_11_data>
 324:	00052007          	flw	ft0,0(a0)
 328:	00452087          	flw	ft1,4(a0)
 32c:	00852107          	flw	ft2,8(a0)
 330:	00c52683          	lw	a3,12(a0)
 334:	081071d3          	fsub.s	ft3,ft0,ft1
 338:	e0018553          	fmv.x.w	a0,ft3
 33c:	001015f3          	fsflags	a1,zero
 340:	01000613          	li	a2,16
 344:	00d51663          	bne	a0,a3,350 <fail>
 348:	00c59463          	bne	a1,a2,350 <fail>
 34c:	04301263          	bne	zero,gp,390 <pass>

0000000000000350 <fail>:
 350:	0ff0000f          	fence
 354:	00018063          	beqz	gp,354 <fail+0x4>
 358:	00119193          	slli	gp,gp,0x1
 35c:	0011e193          	ori	gp,gp,1
 360:	05d00893          	li	a7,93
 364:	00018513          	mv	a0,gp
 368:	080002b7          	lui	t0,0x8000
 36c:	7c029073          	csrw	0x7c0,t0
 370:	a0000337          	lui	t1,0xa0000
 374:	0013031b          	addiw	t1,t1,1
 378:	00c31313          	slli	t1,t1,0xc
 37c:	a0b30313          	addi	t1,t1,-1525 # ffffffff9ffffa0b <_end+0xffffffff9fffd96b>
 380:	01331313          	slli	t1,t1,0x13
 384:	00100293          	li	t0,1
 388:	00530023          	sb	t0,0(t1)
 38c:	00000073          	ecall

0000000000000390 <pass>:
 390:	0ff0000f          	fence
 394:	00100193          	li	gp,1
 398:	05d00893          	li	a7,93
 39c:	00000513          	li	a0,0
 3a0:	080002b7          	lui	t0,0x8000
 3a4:	7c029073          	csrw	0x7c0,t0
 3a8:	a0000337          	lui	t1,0xa0000
 3ac:	0013031b          	addiw	t1,t1,1
 3b0:	00c31313          	slli	t1,t1,0xc
 3b4:	a0b30313          	addi	t1,t1,-1525 # ffffffff9ffffa0b <_end+0xffffffff9fffd96b>
 3b8:	01331313          	slli	t1,t1,0x13
 3bc:	0ff00293          	li	t0,255
 3c0:	00530023          	sb	t0,0(t1)
 3c4:	00000073          	ecall
 3c8:	c0001073          	unimp
 3cc:	0000                	unimp
 3ce:	0000                	unimp
 3d0:	0000                	unimp
 3d2:	0000                	unimp
 3d4:	0000                	unimp
 3d6:	0000                	unimp
 3d8:	0000                	unimp
 3da:	0000                	unimp
 3dc:	0000                	unimp
 3de:	0000                	unimp
 3e0:	0000                	unimp
 3e2:	0000                	unimp
 3e4:	0000                	unimp
 3e6:	0000                	unimp
 3e8:	0000                	unimp
 3ea:	0000                	unimp
 3ec:	0000                	unimp
 3ee:	0000                	unimp
 3f0:	0000                	unimp
 3f2:	0000                	unimp
 3f4:	0000                	unimp
 3f6:	0000                	unimp
 3f8:	0000                	unimp
 3fa:	0000                	unimp
 3fc:	0000                	unimp
 3fe:	0000                	unimp
