
rv64ui-p-sll:     file format elf64-littleriscv


Disassembly of section .text.init:

0000000000000000 <_start>:
   0:	0480006f          	j	48 <reset_vector>

0000000000000004 <trap_vector>:
   4:	00000f13          	li	t5,0
   8:	000f0463          	beqz	t5,10 <trap_vector+0xc>
   c:	000f0067          	jr	t5
  10:	34202f73          	csrr	t5,mcause
  14:	000f5463          	bgez	t5,1c <handle_exception>
  18:	0200006f          	j	38 <other_exception>

000000000000001c <handle_exception>:
  1c:	34202f73          	csrr	t5,mcause
  20:	00800f93          	li	t6,8
  24:	01ff0c63          	beq	t5,t6,3c <write_tohost>
  28:	00900f93          	li	t6,9
  2c:	01ff0863          	beq	t5,t6,3c <write_tohost>
  30:	00b00f93          	li	t6,11
  34:	01ff0463          	beq	t5,t6,3c <write_tohost>

0000000000000038 <other_exception>:
  38:	5391e193          	ori	gp,gp,1337

000000000000003c <write_tohost>:
  3c:	00001f17          	auipc	t5,0x1
  40:	fc3f2223          	sw	gp,-60(t5) # 1000 <tohost>
  44:	ff9ff06f          	j	3c <write_tohost>

0000000000000048 <reset_vector>:
  48:	00000093          	li	ra,0
  4c:	00000113          	li	sp,0
  50:	00000193          	li	gp,0
  54:	00000213          	li	tp,0
  58:	00000293          	li	t0,0
  5c:	00000313          	li	t1,0
  60:	00000393          	li	t2,0
  64:	00000413          	li	s0,0
  68:	00000493          	li	s1,0
  6c:	00000513          	li	a0,0
  70:	00000593          	li	a1,0
  74:	00000613          	li	a2,0
  78:	00000693          	li	a3,0
  7c:	00000713          	li	a4,0
  80:	00000793          	li	a5,0
  84:	00000813          	li	a6,0
  88:	00000893          	li	a7,0
  8c:	00000913          	li	s2,0
  90:	00000993          	li	s3,0
  94:	00000a13          	li	s4,0
  98:	00000a93          	li	s5,0
  9c:	00000b13          	li	s6,0
  a0:	00000b93          	li	s7,0
  a4:	00000c13          	li	s8,0
  a8:	00000c93          	li	s9,0
  ac:	00000d13          	li	s10,0
  b0:	00000d93          	li	s11,0
  b4:	00000e13          	li	t3,0
  b8:	00000e93          	li	t4,0
  bc:	00000f13          	li	t5,0
  c0:	00000f93          	li	t6,0
  c4:	f1402573          	csrr	a0,mhartid
  c8:	00051063          	bnez	a0,c8 <reset_vector+0x80>
  cc:	00000193          	li	gp,0
  d0:	00000297          	auipc	t0,0x0
  d4:	f3428293          	addi	t0,t0,-204 # 4 <trap_vector>
  d8:	30529073          	csrw	mtvec,t0
  dc:	00100513          	li	a0,1
  e0:	01f51513          	slli	a0,a0,0x1f
  e4:	02055e63          	bgez	a0,120 <reset_vector+0xd8>
  e8:	0ff0000f          	fence
  ec:	00100193          	li	gp,1
  f0:	05d00893          	li	a7,93
  f4:	00000513          	li	a0,0
  f8:	080002b7          	lui	t0,0x8000
  fc:	7c029073          	csrw	0x7c0,t0
 100:	a0000337          	lui	t1,0xa0000
 104:	0013031b          	addiw	t1,t1,1
 108:	00c31313          	slli	t1,t1,0xc
 10c:	a0b30313          	addi	t1,t1,-1525 # ffffffff9ffffa0b <_end+0xffffffff9fffda0b>
 110:	01331313          	slli	t1,t1,0x13
 114:	0ff00293          	li	t0,255
 118:	00530023          	sb	t0,0(t1)
 11c:	00000073          	ecall
 120:	30005073          	csrwi	mstatus,0
 124:	00000297          	auipc	t0,0x0
 128:	01428293          	addi	t0,t0,20 # 138 <test_2>
 12c:	34129073          	csrw	mepc,t0
 130:	f1402573          	csrr	a0,mhartid
 134:	30200073          	mret

0000000000000138 <test_2>:
 138:	00100093          	li	ra,1
 13c:	00000113          	li	sp,0
 140:	00209733          	sll	a4,ra,sp
 144:	00100393          	li	t2,1
 148:	00200193          	li	gp,2
 14c:	5e771c63          	bne	a4,t2,744 <fail>

0000000000000150 <test_3>:
 150:	00100093          	li	ra,1
 154:	00100113          	li	sp,1
 158:	00209733          	sll	a4,ra,sp
 15c:	00200393          	li	t2,2
 160:	00300193          	li	gp,3
 164:	5e771063          	bne	a4,t2,744 <fail>

0000000000000168 <test_4>:
 168:	00100093          	li	ra,1
 16c:	00700113          	li	sp,7
 170:	00209733          	sll	a4,ra,sp
 174:	08000393          	li	t2,128
 178:	00400193          	li	gp,4
 17c:	5c771463          	bne	a4,t2,744 <fail>

0000000000000180 <test_5>:
 180:	00100093          	li	ra,1
 184:	00e00113          	li	sp,14
 188:	00209733          	sll	a4,ra,sp
 18c:	000043b7          	lui	t2,0x4
 190:	00500193          	li	gp,5
 194:	5a771863          	bne	a4,t2,744 <fail>

0000000000000198 <test_6>:
 198:	00100093          	li	ra,1
 19c:	01f00113          	li	sp,31
 1a0:	00209733          	sll	a4,ra,sp
 1a4:	0010039b          	addiw	t2,zero,1
 1a8:	01f39393          	slli	t2,t2,0x1f
 1ac:	00600193          	li	gp,6
 1b0:	58771a63          	bne	a4,t2,744 <fail>

00000000000001b4 <test_7>:
 1b4:	fff00093          	li	ra,-1
 1b8:	00000113          	li	sp,0
 1bc:	00209733          	sll	a4,ra,sp
 1c0:	fff00393          	li	t2,-1
 1c4:	00700193          	li	gp,7
 1c8:	56771e63          	bne	a4,t2,744 <fail>

00000000000001cc <test_8>:
 1cc:	fff00093          	li	ra,-1
 1d0:	00100113          	li	sp,1
 1d4:	00209733          	sll	a4,ra,sp
 1d8:	ffe00393          	li	t2,-2
 1dc:	00800193          	li	gp,8
 1e0:	56771263          	bne	a4,t2,744 <fail>

00000000000001e4 <test_9>:
 1e4:	fff00093          	li	ra,-1
 1e8:	00700113          	li	sp,7
 1ec:	00209733          	sll	a4,ra,sp
 1f0:	f8000393          	li	t2,-128
 1f4:	00900193          	li	gp,9
 1f8:	54771663          	bne	a4,t2,744 <fail>

00000000000001fc <test_10>:
 1fc:	fff00093          	li	ra,-1
 200:	00e00113          	li	sp,14
 204:	00209733          	sll	a4,ra,sp
 208:	ffffc3b7          	lui	t2,0xffffc
 20c:	00a00193          	li	gp,10
 210:	52771a63          	bne	a4,t2,744 <fail>

0000000000000214 <test_11>:
 214:	fff00093          	li	ra,-1
 218:	01f00113          	li	sp,31
 21c:	00209733          	sll	a4,ra,sp
 220:	800003b7          	lui	t2,0x80000
 224:	00b00193          	li	gp,11
 228:	50771e63          	bne	a4,t2,744 <fail>

000000000000022c <test_12>:
 22c:	212120b7          	lui	ra,0x21212
 230:	1210809b          	addiw	ra,ra,289
 234:	00000113          	li	sp,0
 238:	00209733          	sll	a4,ra,sp
 23c:	212123b7          	lui	t2,0x21212
 240:	1213839b          	addiw	t2,t2,289
 244:	00c00193          	li	gp,12
 248:	4e771e63          	bne	a4,t2,744 <fail>

000000000000024c <test_13>:
 24c:	212120b7          	lui	ra,0x21212
 250:	1210809b          	addiw	ra,ra,289
 254:	00100113          	li	sp,1
 258:	00209733          	sll	a4,ra,sp
 25c:	424243b7          	lui	t2,0x42424
 260:	2423839b          	addiw	t2,t2,578
 264:	00d00193          	li	gp,13
 268:	4c771e63          	bne	a4,t2,744 <fail>

000000000000026c <test_14>:
 26c:	212120b7          	lui	ra,0x21212
 270:	1210809b          	addiw	ra,ra,289
 274:	00700113          	li	sp,7
 278:	00209733          	sll	a4,ra,sp
 27c:	010913b7          	lui	t2,0x1091
 280:	9093839b          	addiw	t2,t2,-1783
 284:	00c39393          	slli	t2,t2,0xc
 288:	08038393          	addi	t2,t2,128 # 1091080 <_end+0x108f080>
 28c:	00e00193          	li	gp,14
 290:	4a771a63          	bne	a4,t2,744 <fail>

0000000000000294 <test_15>:
 294:	212120b7          	lui	ra,0x21212
 298:	1210809b          	addiw	ra,ra,289
 29c:	00e00113          	li	sp,14
 2a0:	00209733          	sll	a4,ra,sp
 2a4:	212123b7          	lui	t2,0x21212
 2a8:	1213839b          	addiw	t2,t2,289
 2ac:	00e39393          	slli	t2,t2,0xe
 2b0:	00f00193          	li	gp,15
 2b4:	48771863          	bne	a4,t2,744 <fail>

00000000000002b8 <test_16>:
 2b8:	212120b7          	lui	ra,0x21212
 2bc:	1210809b          	addiw	ra,ra,289
 2c0:	01f00113          	li	sp,31
 2c4:	00209733          	sll	a4,ra,sp
 2c8:	212123b7          	lui	t2,0x21212
 2cc:	1213839b          	addiw	t2,t2,289
 2d0:	01f39393          	slli	t2,t2,0x1f
 2d4:	01000193          	li	gp,16
 2d8:	46771663          	bne	a4,t2,744 <fail>

00000000000002dc <test_17>:
 2dc:	212120b7          	lui	ra,0x21212
 2e0:	1210809b          	addiw	ra,ra,289
 2e4:	fc000113          	li	sp,-64
 2e8:	00209733          	sll	a4,ra,sp
 2ec:	212123b7          	lui	t2,0x21212
 2f0:	1213839b          	addiw	t2,t2,289
 2f4:	01100193          	li	gp,17
 2f8:	44771663          	bne	a4,t2,744 <fail>

00000000000002fc <test_18>:
 2fc:	212120b7          	lui	ra,0x21212
 300:	1210809b          	addiw	ra,ra,289
 304:	fc100113          	li	sp,-63
 308:	00209733          	sll	a4,ra,sp
 30c:	424243b7          	lui	t2,0x42424
 310:	2423839b          	addiw	t2,t2,578
 314:	01200193          	li	gp,18
 318:	42771663          	bne	a4,t2,744 <fail>

000000000000031c <test_19>:
 31c:	212120b7          	lui	ra,0x21212
 320:	1210809b          	addiw	ra,ra,289
 324:	fc700113          	li	sp,-57
 328:	00209733          	sll	a4,ra,sp
 32c:	010913b7          	lui	t2,0x1091
 330:	9093839b          	addiw	t2,t2,-1783
 334:	00c39393          	slli	t2,t2,0xc
 338:	08038393          	addi	t2,t2,128 # 1091080 <_end+0x108f080>
 33c:	01300193          	li	gp,19
 340:	40771263          	bne	a4,t2,744 <fail>

0000000000000344 <test_20>:
 344:	212120b7          	lui	ra,0x21212
 348:	1210809b          	addiw	ra,ra,289
 34c:	fce00113          	li	sp,-50
 350:	00209733          	sll	a4,ra,sp
 354:	212123b7          	lui	t2,0x21212
 358:	1213839b          	addiw	t2,t2,289
 35c:	00e39393          	slli	t2,t2,0xe
 360:	01400193          	li	gp,20
 364:	3e771063          	bne	a4,t2,744 <fail>

0000000000000368 <test_21>:
 368:	212120b7          	lui	ra,0x21212
 36c:	1210809b          	addiw	ra,ra,289
 370:	fff00113          	li	sp,-1
 374:	00209733          	sll	a4,ra,sp
 378:	fff0039b          	addiw	t2,zero,-1
 37c:	03f39393          	slli	t2,t2,0x3f
 380:	01500193          	li	gp,21
 384:	3c771063          	bne	a4,t2,744 <fail>

0000000000000388 <test_50>:
 388:	00100093          	li	ra,1
 38c:	03f00113          	li	sp,63
 390:	00209733          	sll	a4,ra,sp
 394:	fff0039b          	addiw	t2,zero,-1
 398:	03f39393          	slli	t2,t2,0x3f
 39c:	03200193          	li	gp,50
 3a0:	3a771263          	bne	a4,t2,744 <fail>

00000000000003a4 <test_51>:
 3a4:	fff00093          	li	ra,-1
 3a8:	02700113          	li	sp,39
 3ac:	00209733          	sll	a4,ra,sp
 3b0:	fff0039b          	addiw	t2,zero,-1
 3b4:	02739393          	slli	t2,t2,0x27
 3b8:	03300193          	li	gp,51
 3bc:	38771463          	bne	a4,t2,744 <fail>

00000000000003c0 <test_52>:
 3c0:	212120b7          	lui	ra,0x21212
 3c4:	1210809b          	addiw	ra,ra,289
 3c8:	02b00113          	li	sp,43
 3cc:	00209733          	sll	a4,ra,sp
 3d0:	000123b7          	lui	t2,0x12
 3d4:	1213839b          	addiw	t2,t2,289
 3d8:	02b39393          	slli	t2,t2,0x2b
 3dc:	03400193          	li	gp,52
 3e0:	36771263          	bne	a4,t2,744 <fail>

00000000000003e4 <test_22>:
 3e4:	00100093          	li	ra,1
 3e8:	00700113          	li	sp,7
 3ec:	002090b3          	sll	ra,ra,sp
 3f0:	08000393          	li	t2,128
 3f4:	01600193          	li	gp,22
 3f8:	34709663          	bne	ra,t2,744 <fail>

00000000000003fc <test_23>:
 3fc:	00100093          	li	ra,1
 400:	00e00113          	li	sp,14
 404:	00209133          	sll	sp,ra,sp
 408:	000043b7          	lui	t2,0x4
 40c:	01700193          	li	gp,23
 410:	32711a63          	bne	sp,t2,744 <fail>

0000000000000414 <test_24>:
 414:	00300093          	li	ra,3
 418:	001090b3          	sll	ra,ra,ra
 41c:	01800393          	li	t2,24
 420:	01800193          	li	gp,24
 424:	32709063          	bne	ra,t2,744 <fail>

0000000000000428 <test_25>:
 428:	00000213          	li	tp,0
 42c:	00100093          	li	ra,1
 430:	00700113          	li	sp,7
 434:	00209733          	sll	a4,ra,sp
 438:	00070313          	mv	t1,a4
 43c:	00120213          	addi	tp,tp,1 # 1 <_start+0x1>
 440:	00200293          	li	t0,2
 444:	fe5214e3          	bne	tp,t0,42c <test_25+0x4>
 448:	08000393          	li	t2,128
 44c:	01900193          	li	gp,25
 450:	2e731a63          	bne	t1,t2,744 <fail>

0000000000000454 <test_26>:
 454:	00000213          	li	tp,0
 458:	00100093          	li	ra,1
 45c:	00e00113          	li	sp,14
 460:	00209733          	sll	a4,ra,sp
 464:	00000013          	nop
 468:	00070313          	mv	t1,a4
 46c:	00120213          	addi	tp,tp,1 # 1 <_start+0x1>
 470:	00200293          	li	t0,2
 474:	fe5212e3          	bne	tp,t0,458 <test_26+0x4>
 478:	000043b7          	lui	t2,0x4
 47c:	01a00193          	li	gp,26
 480:	2c731263          	bne	t1,t2,744 <fail>

0000000000000484 <test_27>:
 484:	00000213          	li	tp,0
 488:	00100093          	li	ra,1
 48c:	01f00113          	li	sp,31
 490:	00209733          	sll	a4,ra,sp
 494:	00000013          	nop
 498:	00000013          	nop
 49c:	00070313          	mv	t1,a4
 4a0:	00120213          	addi	tp,tp,1 # 1 <_start+0x1>
 4a4:	00200293          	li	t0,2
 4a8:	fe5210e3          	bne	tp,t0,488 <test_27+0x4>
 4ac:	0010039b          	addiw	t2,zero,1
 4b0:	01f39393          	slli	t2,t2,0x1f
 4b4:	01b00193          	li	gp,27
 4b8:	28731663          	bne	t1,t2,744 <fail>

00000000000004bc <test_28>:
 4bc:	00000213          	li	tp,0
 4c0:	00100093          	li	ra,1
 4c4:	00700113          	li	sp,7
 4c8:	00209733          	sll	a4,ra,sp
 4cc:	00120213          	addi	tp,tp,1 # 1 <_start+0x1>
 4d0:	00200293          	li	t0,2
 4d4:	fe5216e3          	bne	tp,t0,4c0 <test_28+0x4>
 4d8:	08000393          	li	t2,128
 4dc:	01c00193          	li	gp,28
 4e0:	26771263          	bne	a4,t2,744 <fail>

00000000000004e4 <test_29>:
 4e4:	00000213          	li	tp,0
 4e8:	00100093          	li	ra,1
 4ec:	00e00113          	li	sp,14
 4f0:	00000013          	nop
 4f4:	00209733          	sll	a4,ra,sp
 4f8:	00120213          	addi	tp,tp,1 # 1 <_start+0x1>
 4fc:	00200293          	li	t0,2
 500:	fe5214e3          	bne	tp,t0,4e8 <test_29+0x4>
 504:	000043b7          	lui	t2,0x4
 508:	01d00193          	li	gp,29
 50c:	22771c63          	bne	a4,t2,744 <fail>

0000000000000510 <test_30>:
 510:	00000213          	li	tp,0
 514:	00100093          	li	ra,1
 518:	01f00113          	li	sp,31
 51c:	00000013          	nop
 520:	00000013          	nop
 524:	00209733          	sll	a4,ra,sp
 528:	00120213          	addi	tp,tp,1 # 1 <_start+0x1>
 52c:	00200293          	li	t0,2
 530:	fe5212e3          	bne	tp,t0,514 <test_30+0x4>
 534:	0010039b          	addiw	t2,zero,1
 538:	01f39393          	slli	t2,t2,0x1f
 53c:	01e00193          	li	gp,30
 540:	20771263          	bne	a4,t2,744 <fail>

0000000000000544 <test_31>:
 544:	00000213          	li	tp,0
 548:	00100093          	li	ra,1
 54c:	00000013          	nop
 550:	00700113          	li	sp,7
 554:	00209733          	sll	a4,ra,sp
 558:	00120213          	addi	tp,tp,1 # 1 <_start+0x1>
 55c:	00200293          	li	t0,2
 560:	fe5214e3          	bne	tp,t0,548 <test_31+0x4>
 564:	08000393          	li	t2,128
 568:	01f00193          	li	gp,31
 56c:	1c771c63          	bne	a4,t2,744 <fail>

0000000000000570 <test_32>:
 570:	00000213          	li	tp,0
 574:	00100093          	li	ra,1
 578:	00000013          	nop
 57c:	00e00113          	li	sp,14
 580:	00000013          	nop
 584:	00209733          	sll	a4,ra,sp
 588:	00120213          	addi	tp,tp,1 # 1 <_start+0x1>
 58c:	00200293          	li	t0,2
 590:	fe5212e3          	bne	tp,t0,574 <test_32+0x4>
 594:	000043b7          	lui	t2,0x4
 598:	02000193          	li	gp,32
 59c:	1a771463          	bne	a4,t2,744 <fail>

00000000000005a0 <test_33>:
 5a0:	00000213          	li	tp,0
 5a4:	00100093          	li	ra,1
 5a8:	00000013          	nop
 5ac:	00000013          	nop
 5b0:	01f00113          	li	sp,31
 5b4:	00209733          	sll	a4,ra,sp
 5b8:	00120213          	addi	tp,tp,1 # 1 <_start+0x1>
 5bc:	00200293          	li	t0,2
 5c0:	fe5212e3          	bne	tp,t0,5a4 <test_33+0x4>
 5c4:	0010039b          	addiw	t2,zero,1
 5c8:	01f39393          	slli	t2,t2,0x1f
 5cc:	02100193          	li	gp,33
 5d0:	16771a63          	bne	a4,t2,744 <fail>

00000000000005d4 <test_34>:
 5d4:	00000213          	li	tp,0
 5d8:	00700113          	li	sp,7
 5dc:	00100093          	li	ra,1
 5e0:	00209733          	sll	a4,ra,sp
 5e4:	00120213          	addi	tp,tp,1 # 1 <_start+0x1>
 5e8:	00200293          	li	t0,2
 5ec:	fe5216e3          	bne	tp,t0,5d8 <test_34+0x4>
 5f0:	08000393          	li	t2,128
 5f4:	02200193          	li	gp,34
 5f8:	14771663          	bne	a4,t2,744 <fail>

00000000000005fc <test_35>:
 5fc:	00000213          	li	tp,0
 600:	00e00113          	li	sp,14
 604:	00100093          	li	ra,1
 608:	00000013          	nop
 60c:	00209733          	sll	a4,ra,sp
 610:	00120213          	addi	tp,tp,1 # 1 <_start+0x1>
 614:	00200293          	li	t0,2
 618:	fe5214e3          	bne	tp,t0,600 <test_35+0x4>
 61c:	000043b7          	lui	t2,0x4
 620:	02300193          	li	gp,35
 624:	12771063          	bne	a4,t2,744 <fail>

0000000000000628 <test_36>:
 628:	00000213          	li	tp,0
 62c:	01f00113          	li	sp,31
 630:	00100093          	li	ra,1
 634:	00000013          	nop
 638:	00000013          	nop
 63c:	00209733          	sll	a4,ra,sp
 640:	00120213          	addi	tp,tp,1 # 1 <_start+0x1>
 644:	00200293          	li	t0,2
 648:	fe5212e3          	bne	tp,t0,62c <test_36+0x4>
 64c:	0010039b          	addiw	t2,zero,1
 650:	01f39393          	slli	t2,t2,0x1f
 654:	02400193          	li	gp,36
 658:	0e771663          	bne	a4,t2,744 <fail>

000000000000065c <test_37>:
 65c:	00000213          	li	tp,0
 660:	00700113          	li	sp,7
 664:	00000013          	nop
 668:	00100093          	li	ra,1
 66c:	00209733          	sll	a4,ra,sp
 670:	00120213          	addi	tp,tp,1 # 1 <_start+0x1>
 674:	00200293          	li	t0,2
 678:	fe5214e3          	bne	tp,t0,660 <test_37+0x4>
 67c:	08000393          	li	t2,128
 680:	02500193          	li	gp,37
 684:	0c771063          	bne	a4,t2,744 <fail>

0000000000000688 <test_38>:
 688:	00000213          	li	tp,0
 68c:	00e00113          	li	sp,14
 690:	00000013          	nop
 694:	00100093          	li	ra,1
 698:	00000013          	nop
 69c:	00209733          	sll	a4,ra,sp
 6a0:	00120213          	addi	tp,tp,1 # 1 <_start+0x1>
 6a4:	00200293          	li	t0,2
 6a8:	fe5212e3          	bne	tp,t0,68c <test_38+0x4>
 6ac:	000043b7          	lui	t2,0x4
 6b0:	02600193          	li	gp,38
 6b4:	08771863          	bne	a4,t2,744 <fail>

00000000000006b8 <test_39>:
 6b8:	00000213          	li	tp,0
 6bc:	01f00113          	li	sp,31
 6c0:	00000013          	nop
 6c4:	00000013          	nop
 6c8:	00100093          	li	ra,1
 6cc:	00209733          	sll	a4,ra,sp
 6d0:	00120213          	addi	tp,tp,1 # 1 <_start+0x1>
 6d4:	00200293          	li	t0,2
 6d8:	fe5212e3          	bne	tp,t0,6bc <test_39+0x4>
 6dc:	0010039b          	addiw	t2,zero,1
 6e0:	01f39393          	slli	t2,t2,0x1f
 6e4:	02700193          	li	gp,39
 6e8:	04771e63          	bne	a4,t2,744 <fail>

00000000000006ec <test_40>:
 6ec:	00f00093          	li	ra,15
 6f0:	00101133          	sll	sp,zero,ra
 6f4:	00000393          	li	t2,0
 6f8:	02800193          	li	gp,40
 6fc:	04711463          	bne	sp,t2,744 <fail>

0000000000000700 <test_41>:
 700:	02000093          	li	ra,32
 704:	00009133          	sll	sp,ra,zero
 708:	02000393          	li	t2,32
 70c:	02900193          	li	gp,41
 710:	02711a63          	bne	sp,t2,744 <fail>

0000000000000714 <test_42>:
 714:	000010b3          	sll	ra,zero,zero
 718:	00000393          	li	t2,0
 71c:	02a00193          	li	gp,42
 720:	02709263          	bne	ra,t2,744 <fail>

0000000000000724 <test_43>:
 724:	40000093          	li	ra,1024
 728:	00001137          	lui	sp,0x1
 72c:	8001011b          	addiw	sp,sp,-2048
 730:	00209033          	sll	zero,ra,sp
 734:	00000393          	li	t2,0
 738:	02b00193          	li	gp,43
 73c:	00701463          	bne	zero,t2,744 <fail>
 740:	04301263          	bne	zero,gp,784 <pass>

0000000000000744 <fail>:
 744:	0ff0000f          	fence
 748:	00018063          	beqz	gp,748 <fail+0x4>
 74c:	00119193          	slli	gp,gp,0x1
 750:	0011e193          	ori	gp,gp,1
 754:	05d00893          	li	a7,93
 758:	00018513          	mv	a0,gp
 75c:	080002b7          	lui	t0,0x8000
 760:	7c029073          	csrw	0x7c0,t0
 764:	a0000337          	lui	t1,0xa0000
 768:	0013031b          	addiw	t1,t1,1
 76c:	00c31313          	slli	t1,t1,0xc
 770:	a0b30313          	addi	t1,t1,-1525 # ffffffff9ffffa0b <_end+0xffffffff9fffda0b>
 774:	01331313          	slli	t1,t1,0x13
 778:	00100293          	li	t0,1
 77c:	00530023          	sb	t0,0(t1)
 780:	00000073          	ecall

0000000000000784 <pass>:
 784:	0ff0000f          	fence
 788:	00100193          	li	gp,1
 78c:	05d00893          	li	a7,93
 790:	00000513          	li	a0,0
 794:	080002b7          	lui	t0,0x8000
 798:	7c029073          	csrw	0x7c0,t0
 79c:	a0000337          	lui	t1,0xa0000
 7a0:	0013031b          	addiw	t1,t1,1
 7a4:	00c31313          	slli	t1,t1,0xc
 7a8:	a0b30313          	addi	t1,t1,-1525 # ffffffff9ffffa0b <_end+0xffffffff9fffda0b>
 7ac:	01331313          	slli	t1,t1,0x13
 7b0:	0ff00293          	li	t0,255
 7b4:	00530023          	sb	t0,0(t1)
 7b8:	00000073          	ecall
 7bc:	c0001073          	unimp
