
rv64mi-p-csr:     file format elf64-littleriscv


Disassembly of section .text.init:

0000000000000000 <_start>:
   0:	04c0006f          	j	4c <reset_vector>

0000000000000004 <trap_vector>:
   4:	00000f17          	auipc	t5,0x0
   8:	464f0f13          	addi	t5,t5,1124 # 468 <mtvec_handler>
   c:	000f0463          	beqz	t5,14 <trap_vector+0x10>
  10:	000f0067          	jr	t5
  14:	34202f73          	csrr	t5,mcause
  18:	000f5463          	bgez	t5,20 <handle_exception>
  1c:	0200006f          	j	3c <other_exception>

0000000000000020 <handle_exception>:
  20:	34202f73          	csrr	t5,mcause
  24:	00800f93          	li	t6,8
  28:	01ff0c63          	beq	t5,t6,40 <write_tohost>
  2c:	00900f93          	li	t6,9
  30:	01ff0863          	beq	t5,t6,40 <write_tohost>
  34:	00b00f93          	li	t6,11
  38:	01ff0463          	beq	t5,t6,40 <write_tohost>

000000000000003c <other_exception>:
  3c:	5391e193          	ori	gp,gp,1337

0000000000000040 <write_tohost>:
  40:	00001f17          	auipc	t5,0x1
  44:	fc3f2023          	sw	gp,-64(t5) # 1000 <tohost>
  48:	ff9ff06f          	j	40 <write_tohost>

000000000000004c <reset_vector>:
  4c:	00000093          	li	ra,0
  50:	00000113          	li	sp,0
  54:	00000193          	li	gp,0
  58:	00000213          	li	tp,0
  5c:	00000293          	li	t0,0
  60:	00000313          	li	t1,0
  64:	00000393          	li	t2,0
  68:	00000413          	li	s0,0
  6c:	00000493          	li	s1,0
  70:	00000513          	li	a0,0
  74:	00000593          	li	a1,0
  78:	00000613          	li	a2,0
  7c:	00000693          	li	a3,0
  80:	00000713          	li	a4,0
  84:	00000793          	li	a5,0
  88:	00000813          	li	a6,0
  8c:	00000893          	li	a7,0
  90:	00000913          	li	s2,0
  94:	00000993          	li	s3,0
  98:	00000a13          	li	s4,0
  9c:	00000a93          	li	s5,0
  a0:	00000b13          	li	s6,0
  a4:	00000b93          	li	s7,0
  a8:	00000c13          	li	s8,0
  ac:	00000c93          	li	s9,0
  b0:	00000d13          	li	s10,0
  b4:	00000d93          	li	s11,0
  b8:	00000e13          	li	t3,0
  bc:	00000e93          	li	t4,0
  c0:	00000f13          	li	t5,0
  c4:	00000f93          	li	t6,0
  c8:	f1402573          	csrr	a0,mhartid
  cc:	00051063          	bnez	a0,cc <reset_vector+0x80>
  d0:	00000193          	li	gp,0
  d4:	00000297          	auipc	t0,0x0
  d8:	f3028293          	addi	t0,t0,-208 # 4 <trap_vector>
  dc:	30529073          	csrw	mtvec,t0
  e0:	00100513          	li	a0,1
  e4:	01f51513          	slli	a0,a0,0x1f
  e8:	02055e63          	bgez	a0,124 <reset_vector+0xd8>
  ec:	0ff0000f          	fence
  f0:	00100193          	li	gp,1
  f4:	05d00893          	li	a7,93
  f8:	00000513          	li	a0,0
  fc:	080002b7          	lui	t0,0x8000
 100:	7c029073          	csrw	0x7c0,t0
 104:	a0000337          	lui	t1,0xa0000
 108:	0013031b          	addiw	t1,t1,1
 10c:	00c31313          	slli	t1,t1,0xc
 110:	a0b30313          	addi	t1,t1,-1525 # ffffffff9ffffa0b <_end+0xffffffff9fffd9fb>
 114:	01331313          	slli	t1,t1,0x13
 118:	0ff00293          	li	t0,255
 11c:	00530023          	sb	t0,0(t1)
 120:	00000073          	ecall
 124:	30005073          	csrwi	mstatus,0
 128:	00002537          	lui	a0,0x2
 12c:	8005051b          	addiw	a0,a0,-2048
 130:	30052073          	csrs	mstatus,a0
 134:	00000297          	auipc	t0,0x0
 138:	01428293          	addi	t0,t0,20 # 148 <reset_vector+0xfc>
 13c:	34129073          	csrw	mepc,t0
 140:	f1402573          	csrr	a0,mhartid
 144:	30200073          	mret
 148:	000022b7          	lui	t0,0x2
 14c:	8002829b          	addiw	t0,t0,-2048
 150:	3002b073          	csrc	mstatus,t0
 154:	30002373          	csrr	t1,mstatus
 158:	0062f2b3          	and	t0,t0,t1
 15c:	02029463          	bnez	t0,184 <test_19>

0000000000000160 <test_18>:
 160:	30002573          	csrr	a0,mstatus
 164:	0030059b          	addiw	a1,zero,3
 168:	02059593          	slli	a1,a1,0x20
 16c:	00b57533          	and	a0,a0,a1
 170:	0010039b          	addiw	t2,zero,1
 174:	02139393          	slli	t2,t2,0x21
 178:	01200193          	li	gp,18
 17c:	26751a63          	bne	a0,t2,3f0 <fail>
 180:	0200006f          	j	1a0 <test_25>

0000000000000184 <test_19>:
 184:	30002573          	csrr	a0,mstatus
 188:	0030059b          	addiw	a1,zero,3
 18c:	02059593          	slli	a1,a1,0x20
 190:	00b57533          	and	a0,a0,a1
 194:	00000393          	li	t2,0
 198:	01300193          	li	gp,19
 19c:	24751a63          	bne	a0,t2,3f0 <fail>

00000000000001a0 <test_25>:
 1a0:	b0003073          	csrc	mcycle,zero
 1a4:	00000393          	li	t2,0
 1a8:	01900193          	li	gp,25
 1ac:	24701263          	bne	zero,t2,3f0 <fail>

00000000000001b0 <test_26>:
 1b0:	b0002073          	csrr	zero,mcycle
 1b4:	00000393          	li	t2,0
 1b8:	01a00193          	li	gp,26
 1bc:	22701a63          	bne	zero,t2,3f0 <fail>

00000000000001c0 <test_27>:
 1c0:	b0007073          	csrci	mcycle,0
 1c4:	00000393          	li	t2,0
 1c8:	01b00193          	li	gp,27
 1cc:	22701263          	bne	zero,t2,3f0 <fail>

00000000000001d0 <test_28>:
 1d0:	b0006073          	csrsi	mcycle,0
 1d4:	00000393          	li	t2,0
 1d8:	01c00193          	li	gp,28
 1dc:	20701a63          	bne	zero,t2,3f0 <fail>

00000000000001e0 <test_20>:
 1e0:	34001073          	csrw	mscratch,zero
 1e4:	34002573          	csrr	a0,mscratch
 1e8:	00000393          	li	t2,0
 1ec:	01400193          	li	gp,20
 1f0:	20751063          	bne	a0,t2,3f0 <fail>

00000000000001f4 <test_21>:
 1f4:	34005573          	csrrwi	a0,mscratch,0
 1f8:	3407d573          	csrrwi	a0,mscratch,15
 1fc:	00000393          	li	t2,0
 200:	01500193          	li	gp,21
 204:	1e751663          	bne	a0,t2,3f0 <fail>

0000000000000208 <test_22>:
 208:	34086073          	csrsi	mscratch,16
 20c:	34002573          	csrr	a0,mscratch
 210:	01f00393          	li	t2,31
 214:	01600193          	li	gp,22
 218:	1c751c63          	bne	a0,t2,3f0 <fail>
 21c:	3401d073          	csrwi	mscratch,3

0000000000000220 <test_2>:
 220:	34002573          	csrr	a0,mscratch
 224:	00300393          	li	t2,3
 228:	00200193          	li	gp,2
 22c:	1c751263          	bne	a0,t2,3f0 <fail>

0000000000000230 <test_3>:
 230:	3400f5f3          	csrrci	a1,mscratch,1
 234:	00300393          	li	t2,3
 238:	00300193          	li	gp,3
 23c:	1a759a63          	bne	a1,t2,3f0 <fail>

0000000000000240 <test_4>:
 240:	34026673          	csrrsi	a2,mscratch,4
 244:	00200393          	li	t2,2
 248:	00400193          	li	gp,4
 24c:	1a761263          	bne	a2,t2,3f0 <fail>

0000000000000250 <test_5>:
 250:	340156f3          	csrrwi	a3,mscratch,2
 254:	00600393          	li	t2,6
 258:	00500193          	li	gp,5
 25c:	18769a63          	bne	a3,t2,3f0 <fail>

0000000000000260 <test_6>:
 260:	0bad2537          	lui	a0,0xbad2
 264:	dea5051b          	addiw	a0,a0,-534
 268:	340515f3          	csrrw	a1,mscratch,a0
 26c:	00200393          	li	t2,2
 270:	00600193          	li	gp,6
 274:	16759e63          	bne	a1,t2,3f0 <fail>

0000000000000278 <test_7>:
 278:	00002537          	lui	a0,0x2
 27c:	dea5051b          	addiw	a0,a0,-534
 280:	340535f3          	csrrc	a1,mscratch,a0
 284:	0bad23b7          	lui	t2,0xbad2
 288:	dea3839b          	addiw	t2,t2,-534
 28c:	00700193          	li	gp,7
 290:	16759063          	bne	a1,t2,3f0 <fail>

0000000000000294 <test_8>:
 294:	0000c537          	lui	a0,0xc
 298:	eef5051b          	addiw	a0,a0,-273
 29c:	340525f3          	csrrs	a1,mscratch,a0
 2a0:	0bad03b7          	lui	t2,0xbad0
 2a4:	00800193          	li	gp,8
 2a8:	14759463          	bne	a1,t2,3f0 <fail>

00000000000002ac <test_9>:
 2ac:	0bad2537          	lui	a0,0xbad2
 2b0:	dea5051b          	addiw	a0,a0,-534
 2b4:	34051573          	csrrw	a0,mscratch,a0
 2b8:	0badc3b7          	lui	t2,0xbadc
 2bc:	eef3839b          	addiw	t2,t2,-273
 2c0:	00900193          	li	gp,9
 2c4:	12751663          	bne	a0,t2,3f0 <fail>

00000000000002c8 <test_10>:
 2c8:	00002537          	lui	a0,0x2
 2cc:	dea5051b          	addiw	a0,a0,-534
 2d0:	34053573          	csrrc	a0,mscratch,a0
 2d4:	0bad23b7          	lui	t2,0xbad2
 2d8:	dea3839b          	addiw	t2,t2,-534
 2dc:	00a00193          	li	gp,10
 2e0:	10751863          	bne	a0,t2,3f0 <fail>

00000000000002e4 <test_11>:
 2e4:	0000c537          	lui	a0,0xc
 2e8:	eef5051b          	addiw	a0,a0,-273
 2ec:	34052573          	csrrs	a0,mscratch,a0
 2f0:	0bad03b7          	lui	t2,0xbad0
 2f4:	00b00193          	li	gp,11
 2f8:	0e751c63          	bne	a0,t2,3f0 <fail>

00000000000002fc <test_12>:
 2fc:	34002573          	csrr	a0,mscratch
 300:	0badc3b7          	lui	t2,0xbadc
 304:	eef3839b          	addiw	t2,t2,-273
 308:	00c00193          	li	gp,12
 30c:	0e751263          	bne	a0,t2,3f0 <fail>
 310:	30102573          	csrr	a0,misa
 314:	02057513          	andi	a0,a0,32
 318:	02050863          	beqz	a0,348 <test_13+0x14>
 31c:	000065b7          	lui	a1,0x6
 320:	3005a073          	csrs	mstatus,a1
 324:	f0000053          	fmv.w.x	ft0,zero
 328:	3005b073          	csrc	mstatus,a1
 32c:	00002597          	auipc	a1,0x2
 330:	cd458593          	addi	a1,a1,-812 # 2000 <begin_signature>

0000000000000334 <test_13>:
 334:	0005a027          	fsw	ft0,0(a1)
 338:	0005a503          	lw	a0,0(a1)
 33c:	00100393          	li	t2,1
 340:	00d00193          	li	gp,13
 344:	0a751663          	bne	a0,t2,3f0 <fail>
 348:	30102573          	csrr	a0,misa
 34c:	01455513          	srli	a0,a0,0x14
 350:	00157513          	andi	a0,a0,1
 354:	06050063          	beqz	a0,3b4 <finish>
 358:	3060d073          	csrwi	mcounteren,1
 35c:	30102573          	csrr	a0,misa
 360:	01255513          	srli	a0,a0,0x12
 364:	00157513          	andi	a0,a0,1
 368:	00050463          	beqz	a0,370 <test_13+0x3c>
 36c:	1060d073          	csrwi	scounteren,1
 370:	000022b7          	lui	t0,0x2
 374:	8002829b          	addiw	t0,t0,-2048
 378:	3002b073          	csrc	mstatus,t0
 37c:	00000297          	auipc	t0,0x0
 380:	01028293          	addi	t0,t0,16 # 38c <test_14>
 384:	34129073          	csrw	mepc,t0
 388:	30200073          	mret

000000000000038c <test_14>:
 38c:	0ff00513          	li	a0,255
 390:	c0001573          	csrrw	a0,cycle,zero
 394:	0ff00393          	li	t2,255
 398:	00e00193          	li	gp,14
 39c:	04751a63          	bne	a0,t2,3f0 <fail>

00000000000003a0 <test_15>:
 3a0:	0ff00513          	li	a0,255
 3a4:	30002573          	csrr	a0,mstatus
 3a8:	0ff00393          	li	t2,255
 3ac:	00f00193          	li	gp,15
 3b0:	04751063          	bne	a0,t2,3f0 <fail>

00000000000003b4 <finish>:
 3b4:	0ff0000f          	fence
 3b8:	00100193          	li	gp,1
 3bc:	05d00893          	li	a7,93
 3c0:	00000513          	li	a0,0
 3c4:	080002b7          	lui	t0,0x8000
 3c8:	7c029073          	csrw	0x7c0,t0
 3cc:	a0000337          	lui	t1,0xa0000
 3d0:	0013031b          	addiw	t1,t1,1
 3d4:	00c31313          	slli	t1,t1,0xc
 3d8:	a0b30313          	addi	t1,t1,-1525 # ffffffff9ffffa0b <_end+0xffffffff9fffd9fb>
 3dc:	01331313          	slli	t1,t1,0x13
 3e0:	0ff00293          	li	t0,255
 3e4:	00530023          	sb	t0,0(t1)
 3e8:	00000073          	ecall
 3ec:	04301263          	bne	zero,gp,430 <pass>

00000000000003f0 <fail>:
 3f0:	0ff0000f          	fence
 3f4:	00018063          	beqz	gp,3f4 <fail+0x4>
 3f8:	00119193          	slli	gp,gp,0x1
 3fc:	0011e193          	ori	gp,gp,1
 400:	05d00893          	li	a7,93
 404:	00018513          	mv	a0,gp
 408:	080002b7          	lui	t0,0x8000
 40c:	7c029073          	csrw	0x7c0,t0
 410:	a0000337          	lui	t1,0xa0000
 414:	0013031b          	addiw	t1,t1,1
 418:	00c31313          	slli	t1,t1,0xc
 41c:	a0b30313          	addi	t1,t1,-1525 # ffffffff9ffffa0b <_end+0xffffffff9fffd9fb>
 420:	01331313          	slli	t1,t1,0x13
 424:	00100293          	li	t0,1
 428:	00530023          	sb	t0,0(t1)
 42c:	00000073          	ecall

0000000000000430 <pass>:
 430:	0ff0000f          	fence
 434:	00100193          	li	gp,1
 438:	05d00893          	li	a7,93
 43c:	00000513          	li	a0,0
 440:	080002b7          	lui	t0,0x8000
 444:	7c029073          	csrw	0x7c0,t0
 448:	a0000337          	lui	t1,0xa0000
 44c:	0013031b          	addiw	t1,t1,1
 450:	00c31313          	slli	t1,t1,0xc
 454:	a0b30313          	addi	t1,t1,-1525 # ffffffff9ffffa0b <_end+0xffffffff9fffd9fb>
 458:	01331313          	slli	t1,t1,0x13
 45c:	0ff00293          	li	t0,255
 460:	00530023          	sb	t0,0(t1)
 464:	00000073          	ecall

0000000000000468 <mtvec_handler>:
 468:	00c00293          	li	t0,12
 46c:	0051e663          	bltu	gp,t0,478 <mtvec_handler+0x10>
 470:	00e00293          	li	t0,14
 474:	0432f463          	bgeu	t0,gp,4bc <privileged>
 478:	342022f3          	csrr	t0,mcause
 47c:	00800313          	li	t1,8
 480:	f66298e3          	bne	t0,t1,3f0 <fail>
 484:	0ff0000f          	fence
 488:	00100193          	li	gp,1
 48c:	05d00893          	li	a7,93
 490:	00000513          	li	a0,0
 494:	080002b7          	lui	t0,0x8000
 498:	7c029073          	csrw	0x7c0,t0
 49c:	a0000337          	lui	t1,0xa0000
 4a0:	0013031b          	addiw	t1,t1,1
 4a4:	00c31313          	slli	t1,t1,0xc
 4a8:	a0b30313          	addi	t1,t1,-1525 # ffffffff9ffffa0b <_end+0xffffffff9fffd9fb>
 4ac:	01331313          	slli	t1,t1,0x13
 4b0:	0ff00293          	li	t0,255
 4b4:	00530023          	sb	t0,0(t1)
 4b8:	00000073          	ecall

00000000000004bc <privileged>:
 4bc:	342022f3          	csrr	t0,mcause
 4c0:	00200313          	li	t1,2
 4c4:	f26296e3          	bne	t0,t1,3f0 <fail>
 4c8:	341022f3          	csrr	t0,mepc
 4cc:	00428293          	addi	t0,t0,4 # 8000004 <_end+0x7ffdff4>
 4d0:	34129073          	csrw	mepc,t0
 4d4:	30200073          	mret
 4d8:	c0001073          	unimp
 4dc:	0000                	unimp
 4de:	0000                	unimp
 4e0:	0000                	unimp
 4e2:	0000                	unimp
 4e4:	0000                	unimp
 4e6:	0000                	unimp
 4e8:	0000                	unimp
 4ea:	0000                	unimp
 4ec:	0000                	unimp
 4ee:	0000                	unimp
 4f0:	0000                	unimp
 4f2:	0000                	unimp
 4f4:	0000                	unimp
 4f6:	0000                	unimp
 4f8:	0000                	unimp
 4fa:	0000                	unimp
 4fc:	0000                	unimp
 4fe:	0000                	unimp
 500:	0000                	unimp
 502:	0000                	unimp
